
test3_ex.elf:     file format elf32-avr

Sections:
Idx Name          Size      VMA       LMA       File off  Algn
  0 .data         00000078  00800100  00002812  000028a6  2**0
                  CONTENTS, ALLOC, LOAD, DATA
  1 .text         00002812  00000000  00000000  00000094  2**1
                  CONTENTS, ALLOC, LOAD, READONLY, CODE
  2 .bss          00000077  00800178  00800178  0000291e  2**0
                  ALLOC
  3 .debug_aranges 00000080  00000000  00000000  0000291e  2**0
                  CONTENTS, READONLY, DEBUGGING
  4 .debug_pubnames 00000422  00000000  00000000  0000299e  2**0
                  CONTENTS, READONLY, DEBUGGING
  5 .debug_info   00001cc8  00000000  00000000  00002dc0  2**0
                  CONTENTS, READONLY, DEBUGGING
  6 .debug_abbrev 000006a1  00000000  00000000  00004a88  2**0
                  CONTENTS, READONLY, DEBUGGING
  7 .debug_line   000019cb  00000000  00000000  00005129  2**0
                  CONTENTS, READONLY, DEBUGGING
  8 .debug_frame  000003d0  00000000  00000000  00006af4  2**2
                  CONTENTS, READONLY, DEBUGGING
  9 .debug_str    00000670  00000000  00000000  00006ec4  2**0
                  CONTENTS, READONLY, DEBUGGING
 10 .debug_loc    00001757  00000000  00000000  00007534  2**0
                  CONTENTS, READONLY, DEBUGGING
 11 .debug_ranges 00000018  00000000  00000000  00008c8b  2**0
                  CONTENTS, READONLY, DEBUGGING

Disassembly of section .text:

00000000 <__vectors>:
       0:	0c 94 4c 00 	jmp	0x98	; 0x98 <__ctors_end>
       4:	0c 94 6b 00 	jmp	0xd6	; 0xd6 <__bad_interrupt>
       8:	0c 94 6b 00 	jmp	0xd6	; 0xd6 <__bad_interrupt>
       c:	0c 94 6b 00 	jmp	0xd6	; 0xd6 <__bad_interrupt>
      10:	0c 94 6b 00 	jmp	0xd6	; 0xd6 <__bad_interrupt>
      14:	0c 94 6b 00 	jmp	0xd6	; 0xd6 <__bad_interrupt>
      18:	0c 94 6b 00 	jmp	0xd6	; 0xd6 <__bad_interrupt>
      1c:	0c 94 6b 00 	jmp	0xd6	; 0xd6 <__bad_interrupt>
      20:	0c 94 6b 00 	jmp	0xd6	; 0xd6 <__bad_interrupt>
      24:	0c 94 6b 00 	jmp	0xd6	; 0xd6 <__bad_interrupt>
      28:	0c 94 6b 00 	jmp	0xd6	; 0xd6 <__bad_interrupt>
      2c:	0c 94 6b 00 	jmp	0xd6	; 0xd6 <__bad_interrupt>
      30:	0c 94 d4 04 	jmp	0x9a8	; 0x9a8 <__vector_12>
      34:	0c 94 6b 00 	jmp	0xd6	; 0xd6 <__bad_interrupt>
      38:	0c 94 6b 00 	jmp	0xd6	; 0xd6 <__bad_interrupt>
      3c:	0c 94 6b 00 	jmp	0xd6	; 0xd6 <__bad_interrupt>
      40:	0c 94 6b 00 	jmp	0xd6	; 0xd6 <__bad_interrupt>
      44:	0c 94 6b 00 	jmp	0xd6	; 0xd6 <__bad_interrupt>
      48:	0c 94 6b 00 	jmp	0xd6	; 0xd6 <__bad_interrupt>
      4c:	0c 94 6b 00 	jmp	0xd6	; 0xd6 <__bad_interrupt>
      50:	0c 94 6b 00 	jmp	0xd6	; 0xd6 <__bad_interrupt>
      54:	0c 94 6b 00 	jmp	0xd6	; 0xd6 <__bad_interrupt>
      58:	0c 94 6b 00 	jmp	0xd6	; 0xd6 <__bad_interrupt>
      5c:	0c 94 6b 00 	jmp	0xd6	; 0xd6 <__bad_interrupt>
      60:	0c 94 6b 00 	jmp	0xd6	; 0xd6 <__bad_interrupt>
      64:	0c 94 6b 00 	jmp	0xd6	; 0xd6 <__bad_interrupt>
      68:	0c 94 6b 00 	jmp	0xd6	; 0xd6 <__bad_interrupt>
      6c:	0c 94 6b 00 	jmp	0xd6	; 0xd6 <__bad_interrupt>
      70:	0c 94 6b 00 	jmp	0xd6	; 0xd6 <__bad_interrupt>
      74:	0c 94 6b 00 	jmp	0xd6	; 0xd6 <__bad_interrupt>
      78:	0c 94 17 04 	jmp	0x82e	; 0x82e <__vector_30>
      7c:	0c 94 6b 00 	jmp	0xd6	; 0xd6 <__bad_interrupt>
      80:	0c 94 cb 03 	jmp	0x796	; 0x796 <__vector_32>
      84:	0c 94 6b 00 	jmp	0xd6	; 0xd6 <__bad_interrupt>
      88:	0c 94 6b 00 	jmp	0xd6	; 0xd6 <__bad_interrupt>

0000008c <__c.1988>:
      8c:	63 64 69 6e 6f 70 73 75 78 58 5b 00                 cdinopsuxX[.

00000098 <__ctors_end>:
      98:	11 24       	eor	r1, r1
      9a:	1f be       	out	0x3f, r1	; 63
      9c:	cf ef       	ldi	r28, 0xFF	; 255
      9e:	d0 e1       	ldi	r29, 0x10	; 16
      a0:	de bf       	out	0x3e, r29	; 62
      a2:	cd bf       	out	0x3d, r28	; 61

000000a4 <__do_copy_data>:
      a4:	11 e0       	ldi	r17, 0x01	; 1
      a6:	a0 e0       	ldi	r26, 0x00	; 0
      a8:	b1 e0       	ldi	r27, 0x01	; 1
      aa:	e2 e1       	ldi	r30, 0x12	; 18
      ac:	f8 e2       	ldi	r31, 0x28	; 40
      ae:	00 e0       	ldi	r16, 0x00	; 0
      b0:	0b bf       	out	0x3b, r16	; 59
      b2:	02 c0       	rjmp	.+4      	; 0xb8 <__do_copy_data+0x14>
      b4:	07 90       	elpm	r0, Z+
      b6:	0d 92       	st	X+, r0
      b8:	a8 37       	cpi	r26, 0x78	; 120
      ba:	b1 07       	cpc	r27, r17
      bc:	d9 f7       	brne	.-10     	; 0xb4 <__do_copy_data+0x10>

000000be <__do_clear_bss>:
      be:	11 e0       	ldi	r17, 0x01	; 1
      c0:	a8 e7       	ldi	r26, 0x78	; 120
      c2:	b1 e0       	ldi	r27, 0x01	; 1
      c4:	01 c0       	rjmp	.+2      	; 0xc8 <.do_clear_bss_start>

000000c6 <.do_clear_bss_loop>:
      c6:	1d 92       	st	X+, r1

000000c8 <.do_clear_bss_start>:
      c8:	af 3e       	cpi	r26, 0xEF	; 239
      ca:	b1 07       	cpc	r27, r17
      cc:	e1 f7       	brne	.-8      	; 0xc6 <.do_clear_bss_loop>
      ce:	0e 94 ae 00 	call	0x15c	; 0x15c <main>
      d2:	0c 94 07 14 	jmp	0x280e	; 0x280e <_exit>

000000d6 <__bad_interrupt>:
      d6:	0c 94 00 00 	jmp	0	; 0x0 <__vectors>

000000da <seq>:

  
  }
  
  }
void seq(int a){
      da:	ef 92       	push	r14
      dc:	ff 92       	push	r15
      de:	0f 93       	push	r16
      e0:	1f 93       	push	r17
      e2:	cf 93       	push	r28
      e4:	df 93       	push	r29
      e6:	8c 01       	movw	r16, r24
      e8:	c1 e0       	ldi	r28, 0x01	; 1
      ea:	d0 e0       	ldi	r29, 0x00	; 0
	static int temp1=0,temp2=1,temp3=0;
	for(int i=1;i<=a;i++){
	printf("%d",temp3);
      ec:	80 e0       	ldi	r24, 0x00	; 0
      ee:	e8 2e       	mov	r14, r24
      f0:	81 e0       	ldi	r24, 0x01	; 1
      f2:	f8 2e       	mov	r15, r24
      f4:	29 c0       	rjmp	.+82     	; 0x148 <seq+0x6e>
      f6:	00 d0       	rcall	.+0      	; 0xf8 <seq+0x1e>
      f8:	00 d0       	rcall	.+0      	; 0xfa <seq+0x20>
      fa:	ed b7       	in	r30, 0x3d	; 61
      fc:	fe b7       	in	r31, 0x3e	; 62
      fe:	f2 82       	std	Z+2, r15	; 0x02
     100:	e1 82       	std	Z+1, r14	; 0x01
     102:	80 91 78 01 	lds	r24, 0x0178
     106:	90 91 79 01 	lds	r25, 0x0179
     10a:	94 83       	std	Z+4, r25	; 0x04
     10c:	83 83       	std	Z+3, r24	; 0x03
     10e:	0e 94 bd 0d 	call	0x1b7a	; 0x1b7a <printf>
	if(temp3>0){
     112:	0f 90       	pop	r0
     114:	0f 90       	pop	r0
     116:	0f 90       	pop	r0
     118:	0f 90       	pop	r0
	temp3=temp3%10;
	}
	temp3=temp1+temp2;
     11a:	20 91 1f 01 	lds	r18, 0x011F
     11e:	30 91 20 01 	lds	r19, 0x0120
     122:	80 91 7a 01 	lds	r24, 0x017A
     126:	90 91 7b 01 	lds	r25, 0x017B
     12a:	82 0f       	add	r24, r18
     12c:	93 1f       	adc	r25, r19
     12e:	90 93 79 01 	sts	0x0179, r25
     132:	80 93 78 01 	sts	0x0178, r24
	temp1=temp2;
     136:	30 93 7b 01 	sts	0x017B, r19
     13a:	20 93 7a 01 	sts	0x017A, r18
	temp2=temp3;
     13e:	90 93 20 01 	sts	0x0120, r25
     142:	80 93 1f 01 	sts	0x011F, r24
  }
  
  }
void seq(int a){
	static int temp1=0,temp2=1,temp3=0;
	for(int i=1;i<=a;i++){
     146:	21 96       	adiw	r28, 0x01	; 1
     148:	0c 17       	cp	r16, r28
     14a:	1d 07       	cpc	r17, r29
     14c:	a4 f6       	brge	.-88     	; 0xf6 <seq+0x1c>
	}
	temp3=temp1+temp2;
	temp1=temp2;
	temp2=temp3;
}
}
     14e:	df 91       	pop	r29
     150:	cf 91       	pop	r28
     152:	1f 91       	pop	r17
     154:	0f 91       	pop	r16
     156:	ff 90       	pop	r15
     158:	ef 90       	pop	r14
     15a:	08 95       	ret

0000015c <main>:
#include"stdlib.h"
#include "math.h"

void seq(int a);

int main(void){
     15c:	cf 92       	push	r12
     15e:	df 92       	push	r13
     160:	ef 92       	push	r14
     162:	ff 92       	push	r15
     164:	0f 93       	push	r16
     166:	1f 93       	push	r17
     168:	df 93       	push	r29
     16a:	cf 93       	push	r28
     16c:	00 d0       	rcall	.+0      	; 0x16e <main+0x12>
     16e:	cd b7       	in	r28, 0x3d	; 61
     170:	de b7       	in	r29, 0x3e	; 62


  ASA_M128_set();
     172:	0e 94 e0 02 	call	0x5c0	; 0x5c0 <ASA_M128_set>
  while(1){
    int x;
	printf("x=");
     176:	23 e0       	ldi	r18, 0x03	; 3
     178:	c2 2e       	mov	r12, r18
     17a:	21 e0       	ldi	r18, 0x01	; 1
     17c:	d2 2e       	mov	r13, r18
	scanf("%d",&x);printf("\n");
     17e:	90 e0       	ldi	r25, 0x00	; 0
     180:	e9 2e       	mov	r14, r25
     182:	91 e0       	ldi	r25, 0x01	; 1
     184:	f9 2e       	mov	r15, r25
     186:	8e 01       	movw	r16, r28
     188:	0f 5f       	subi	r16, 0xFF	; 255
     18a:	1f 4f       	sbci	r17, 0xFF	; 255


  ASA_M128_set();
  while(1){
    int x;
	printf("x=");
     18c:	00 d0       	rcall	.+0      	; 0x18e <main+0x32>
     18e:	ed b7       	in	r30, 0x3d	; 61
     190:	fe b7       	in	r31, 0x3e	; 62
     192:	d2 82       	std	Z+2, r13	; 0x02
     194:	c1 82       	std	Z+1, r12	; 0x01
     196:	0e 94 bd 0d 	call	0x1b7a	; 0x1b7a <printf>
	scanf("%d",&x);printf("\n");
     19a:	00 d0       	rcall	.+0      	; 0x19c <main+0x40>
     19c:	ed b7       	in	r30, 0x3d	; 61
     19e:	fe b7       	in	r31, 0x3e	; 62
     1a0:	f2 82       	std	Z+2, r15	; 0x02
     1a2:	e1 82       	std	Z+1, r14	; 0x01
     1a4:	14 83       	std	Z+4, r17	; 0x04
     1a6:	03 83       	std	Z+3, r16	; 0x03
     1a8:	0e 94 0b 0e 	call	0x1c16	; 0x1c16 <scanf>
     1ac:	0f 90       	pop	r0
     1ae:	0f 90       	pop	r0
     1b0:	0f 90       	pop	r0
     1b2:	0f 90       	pop	r0
     1b4:	8a e0       	ldi	r24, 0x0A	; 10
     1b6:	90 e0       	ldi	r25, 0x00	; 0
     1b8:	0e 94 cf 0d 	call	0x1b9e	; 0x1b9e <putchar>
	printf("--------change----------\n");
     1bc:	86 e0       	ldi	r24, 0x06	; 6
     1be:	91 e0       	ldi	r25, 0x01	; 1
     1c0:	0e 94 d6 0d 	call	0x1bac	; 0x1bac <puts>
	seq(x);
     1c4:	89 81       	ldd	r24, Y+1	; 0x01
     1c6:	9a 81       	ldd	r25, Y+2	; 0x02
     1c8:	0e 94 6d 00 	call	0xda	; 0xda <seq>
     1cc:	df cf       	rjmp	.-66     	; 0x18c <main+0x30>

000001ce <stdio_putchar>:
     1ce:	1f 93       	push	r17
     1d0:	18 2f       	mov	r17, r24
     1d2:	8a 30       	cpi	r24, 0x0A	; 10
     1d4:	19 f4       	brne	.+6      	; 0x1dc <stdio_putchar+0xe>
     1d6:	8d e0       	ldi	r24, 0x0D	; 13
     1d8:	0e 94 e7 00 	call	0x1ce	; 0x1ce <stdio_putchar>
     1dc:	5d 9b       	sbis	0x0b, 5	; 11
     1de:	fe cf       	rjmp	.-4      	; 0x1dc <stdio_putchar+0xe>
     1e0:	1c b9       	out	0x0c, r17	; 12
     1e2:	80 e0       	ldi	r24, 0x00	; 0
     1e4:	90 e0       	ldi	r25, 0x00	; 0
     1e6:	1f 91       	pop	r17
     1e8:	08 95       	ret

000001ea <stdio_getchar>:
     1ea:	1f 93       	push	r17
     1ec:	bc 01       	movw	r22, r24
     1ee:	5f 9b       	sbis	0x0b, 7	; 11
     1f0:	fe cf       	rjmp	.-4      	; 0x1ee <stdio_getchar+0x4>
     1f2:	1c b1       	in	r17, 0x0c	; 12
     1f4:	81 2f       	mov	r24, r17
     1f6:	0e 94 e7 00 	call	0x1ce	; 0x1ce <stdio_putchar>
     1fa:	81 2f       	mov	r24, r17
     1fc:	90 e0       	ldi	r25, 0x00	; 0
     1fe:	1f 91       	pop	r17
     200:	08 95       	ret

00000202 <DIO_fpt>:
     202:	38 2f       	mov	r19, r24
     204:	84 30       	cpi	r24, 0x04	; 4
     206:	10 f0       	brcs	.+4      	; 0x20c <DIO_fpt+0xa>
     208:	81 e0       	ldi	r24, 0x01	; 1
     20a:	08 95       	ret
     20c:	48 30       	cpi	r20, 0x08	; 8
     20e:	10 f0       	brcs	.+4      	; 0x214 <DIO_fpt+0x12>
     210:	82 e0       	ldi	r24, 0x02	; 2
     212:	08 95       	ret
     214:	82 2f       	mov	r24, r18
     216:	90 e0       	ldi	r25, 0x00	; 0
     218:	02 c0       	rjmp	.+4      	; 0x21e <DIO_fpt+0x1c>
     21a:	88 0f       	add	r24, r24
     21c:	99 1f       	adc	r25, r25
     21e:	4a 95       	dec	r20
     220:	e2 f7       	brpl	.-8      	; 0x21a <DIO_fpt+0x18>
     222:	28 2f       	mov	r18, r24
     224:	31 30       	cpi	r19, 0x01	; 1
     226:	89 f0       	breq	.+34     	; 0x24a <DIO_fpt+0x48>
     228:	31 30       	cpi	r19, 0x01	; 1
     22a:	28 f0       	brcs	.+10     	; 0x236 <DIO_fpt+0x34>
     22c:	32 30       	cpi	r19, 0x02	; 2
     22e:	b9 f0       	breq	.+46     	; 0x25e <DIO_fpt+0x5c>
     230:	33 30       	cpi	r19, 0x03	; 3
     232:	f1 f4       	brne	.+60     	; 0x270 <DIO_fpt+0x6e>
     234:	1f c0       	rjmp	.+62     	; 0x274 <DIO_fpt+0x72>
     236:	8a b3       	in	r24, 0x1a	; 26
     238:	86 2b       	or	r24, r22
     23a:	8a bb       	out	0x1a, r24	; 26
     23c:	8b b3       	in	r24, 0x1b	; 27
     23e:	26 23       	and	r18, r22
     240:	60 95       	com	r22
     242:	86 23       	and	r24, r22
     244:	28 2b       	or	r18, r24
     246:	2b bb       	out	0x1b, r18	; 27
     248:	13 c0       	rjmp	.+38     	; 0x270 <DIO_fpt+0x6e>
     24a:	87 b3       	in	r24, 0x17	; 23
     24c:	86 2b       	or	r24, r22
     24e:	87 bb       	out	0x17, r24	; 23
     250:	88 b3       	in	r24, 0x18	; 24
     252:	26 23       	and	r18, r22
     254:	60 95       	com	r22
     256:	86 23       	and	r24, r22
     258:	28 2b       	or	r18, r24
     25a:	28 bb       	out	0x18, r18	; 24
     25c:	09 c0       	rjmp	.+18     	; 0x270 <DIO_fpt+0x6e>
     25e:	84 b3       	in	r24, 0x14	; 20
     260:	86 2b       	or	r24, r22
     262:	84 bb       	out	0x14, r24	; 20
     264:	85 b3       	in	r24, 0x15	; 21
     266:	26 23       	and	r18, r22
     268:	60 95       	com	r22
     26a:	86 23       	and	r24, r22
     26c:	28 2b       	or	r18, r24
     26e:	25 bb       	out	0x15, r18	; 21
     270:	80 e0       	ldi	r24, 0x00	; 0
     272:	08 95       	ret
     274:	82 b1       	in	r24, 0x02	; 2
     276:	86 2b       	or	r24, r22
     278:	82 b9       	out	0x02, r24	; 2
     27a:	83 b1       	in	r24, 0x03	; 3
     27c:	26 23       	and	r18, r22
     27e:	60 95       	com	r22
     280:	86 23       	and	r24, r22
     282:	28 2b       	or	r18, r24
     284:	23 b9       	out	0x03, r18	; 3
     286:	80 e0       	ldi	r24, 0x00	; 0
     288:	08 95       	ret

0000028a <DIO_fgt>:
     28a:	f9 01       	movw	r30, r18
     28c:	84 30       	cpi	r24, 0x04	; 4
     28e:	10 f0       	brcs	.+4      	; 0x294 <DIO_fgt+0xa>
     290:	81 e0       	ldi	r24, 0x01	; 1
     292:	08 95       	ret
     294:	48 30       	cpi	r20, 0x08	; 8
     296:	10 f0       	brcs	.+4      	; 0x29c <DIO_fgt+0x12>
     298:	82 e0       	ldi	r24, 0x02	; 2
     29a:	08 95       	ret
     29c:	81 30       	cpi	r24, 0x01	; 1
     29e:	b9 f0       	breq	.+46     	; 0x2ce <DIO_fgt+0x44>
     2a0:	81 30       	cpi	r24, 0x01	; 1
     2a2:	28 f0       	brcs	.+10     	; 0x2ae <DIO_fgt+0x24>
     2a4:	82 30       	cpi	r24, 0x02	; 2
     2a6:	19 f1       	breq	.+70     	; 0x2ee <DIO_fgt+0x64>
     2a8:	83 30       	cpi	r24, 0x03	; 3
     2aa:	c1 f5       	brne	.+112    	; 0x31c <DIO_fgt+0x92>
     2ac:	39 c0       	rjmp	.+114    	; 0x320 <DIO_fgt+0x96>
     2ae:	8a b3       	in	r24, 0x1a	; 26
     2b0:	88 23       	and	r24, r24
     2b2:	29 f0       	breq	.+10     	; 0x2be <DIO_fgt+0x34>
     2b4:	9a b3       	in	r25, 0x1a	; 26
     2b6:	86 2f       	mov	r24, r22
     2b8:	80 95       	com	r24
     2ba:	89 23       	and	r24, r25
     2bc:	05 c0       	rjmp	.+10     	; 0x2c8 <DIO_fgt+0x3e>
     2be:	8a b3       	in	r24, 0x1a	; 26
     2c0:	88 23       	and	r24, r24
     2c2:	19 f4       	brne	.+6      	; 0x2ca <DIO_fgt+0x40>
     2c4:	86 2f       	mov	r24, r22
     2c6:	80 95       	com	r24
     2c8:	8a bb       	out	0x1a, r24	; 26
     2ca:	89 b3       	in	r24, 0x19	; 25
     2cc:	1f c0       	rjmp	.+62     	; 0x30c <DIO_fgt+0x82>
     2ce:	87 b3       	in	r24, 0x17	; 23
     2d0:	88 23       	and	r24, r24
     2d2:	29 f0       	breq	.+10     	; 0x2de <DIO_fgt+0x54>
     2d4:	97 b3       	in	r25, 0x17	; 23
     2d6:	86 2f       	mov	r24, r22
     2d8:	80 95       	com	r24
     2da:	89 23       	and	r24, r25
     2dc:	05 c0       	rjmp	.+10     	; 0x2e8 <DIO_fgt+0x5e>
     2de:	87 b3       	in	r24, 0x17	; 23
     2e0:	88 23       	and	r24, r24
     2e2:	19 f4       	brne	.+6      	; 0x2ea <DIO_fgt+0x60>
     2e4:	86 2f       	mov	r24, r22
     2e6:	80 95       	com	r24
     2e8:	87 bb       	out	0x17, r24	; 23
     2ea:	86 b3       	in	r24, 0x16	; 22
     2ec:	0f c0       	rjmp	.+30     	; 0x30c <DIO_fgt+0x82>
     2ee:	84 b3       	in	r24, 0x14	; 20
     2f0:	88 23       	and	r24, r24
     2f2:	29 f0       	breq	.+10     	; 0x2fe <DIO_fgt+0x74>
     2f4:	94 b3       	in	r25, 0x14	; 20
     2f6:	86 2f       	mov	r24, r22
     2f8:	80 95       	com	r24
     2fa:	89 23       	and	r24, r25
     2fc:	05 c0       	rjmp	.+10     	; 0x308 <DIO_fgt+0x7e>
     2fe:	84 b3       	in	r24, 0x14	; 20
     300:	88 23       	and	r24, r24
     302:	19 f4       	brne	.+6      	; 0x30a <DIO_fgt+0x80>
     304:	86 2f       	mov	r24, r22
     306:	80 95       	com	r24
     308:	84 bb       	out	0x14, r24	; 20
     30a:	83 b3       	in	r24, 0x13	; 19
     30c:	86 23       	and	r24, r22
     30e:	90 e0       	ldi	r25, 0x00	; 0
     310:	02 c0       	rjmp	.+4      	; 0x316 <DIO_fgt+0x8c>
     312:	95 95       	asr	r25
     314:	87 95       	ror	r24
     316:	4a 95       	dec	r20
     318:	e2 f7       	brpl	.-8      	; 0x312 <DIO_fgt+0x88>
     31a:	80 83       	st	Z, r24
     31c:	80 e0       	ldi	r24, 0x00	; 0
     31e:	08 95       	ret
     320:	82 b1       	in	r24, 0x02	; 2
     322:	88 23       	and	r24, r24
     324:	29 f0       	breq	.+10     	; 0x330 <DIO_fgt+0xa6>
     326:	92 b1       	in	r25, 0x02	; 2
     328:	86 2f       	mov	r24, r22
     32a:	80 95       	com	r24
     32c:	89 23       	and	r24, r25
     32e:	05 c0       	rjmp	.+10     	; 0x33a <DIO_fgt+0xb0>
     330:	82 b1       	in	r24, 0x02	; 2
     332:	88 23       	and	r24, r24
     334:	19 f4       	brne	.+6      	; 0x33c <DIO_fgt+0xb2>
     336:	86 2f       	mov	r24, r22
     338:	80 95       	com	r24
     33a:	82 b9       	out	0x02, r24	; 2
     33c:	81 b1       	in	r24, 0x01	; 1
     33e:	86 23       	and	r24, r22
     340:	90 e0       	ldi	r25, 0x00	; 0
     342:	02 c0       	rjmp	.+4      	; 0x348 <DIO_fgt+0xbe>
     344:	95 95       	asr	r25
     346:	87 95       	ror	r24
     348:	4a 95       	dec	r20
     34a:	e2 f7       	brpl	.-8      	; 0x344 <DIO_fgt+0xba>
     34c:	80 83       	st	Z, r24
     34e:	80 e0       	ldi	r24, 0x00	; 0
     350:	08 95       	ret

00000352 <HMI_Transceiver_get>:
     352:	df 92       	push	r13
     354:	ef 92       	push	r14
     356:	ff 92       	push	r15
     358:	0f 93       	push	r16
     35a:	1f 93       	push	r17
     35c:	cf 93       	push	r28
     35e:	df 93       	push	r29
     360:	08 2f       	mov	r16, r24
     362:	d6 2e       	mov	r13, r22
     364:	e7 2e       	mov	r14, r23
     366:	81 32       	cpi	r24, 0x21	; 33
     368:	10 f0       	brcs	.+4      	; 0x36e <HMI_Transceiver_get+0x1c>
     36a:	81 e0       	ldi	r24, 0x01	; 1
     36c:	2a c0       	rjmp	.+84     	; 0x3c2 <HMI_Transceiver_get+0x70>
     36e:	0e 94 1a 0c 	call	0x1834	; 0x1834 <PC_getchar>
     372:	8b 3a       	cpi	r24, 0xAB	; 171
     374:	29 f5       	brne	.+74     	; 0x3c0 <HMI_Transceiver_get+0x6e>
     376:	0e 94 1a 0c 	call	0x1834	; 0x1834 <PC_getchar>
     37a:	8b 3a       	cpi	r24, 0xAB	; 171
     37c:	09 f5       	brne	.+66     	; 0x3c0 <HMI_Transceiver_get+0x6e>
     37e:	0e 94 1a 0c 	call	0x1834	; 0x1834 <PC_getchar>
     382:	8b 3a       	cpi	r24, 0xAB	; 171
     384:	e9 f4       	brne	.+58     	; 0x3c0 <HMI_Transceiver_get+0x6e>
     386:	0e 94 1a 0c 	call	0x1834	; 0x1834 <PC_getchar>
     38a:	f8 2e       	mov	r15, r24
     38c:	18 2f       	mov	r17, r24
     38e:	8d 2d       	mov	r24, r13
     390:	9e 2d       	mov	r25, r14
     392:	9c 01       	movw	r18, r24
     394:	e9 01       	movw	r28, r18
     396:	04 c0       	rjmp	.+8      	; 0x3a0 <HMI_Transceiver_get+0x4e>
     398:	0e 94 1a 0c 	call	0x1834	; 0x1834 <PC_getchar>
     39c:	89 93       	st	Y+, r24
     39e:	18 0f       	add	r17, r24
     3a0:	9e 01       	movw	r18, r28
     3a2:	2d 19       	sub	r18, r13
     3a4:	20 17       	cp	r18, r16
     3a6:	c0 f3       	brcs	.-16     	; 0x398 <HMI_Transceiver_get+0x46>
     3a8:	0e 94 1a 0c 	call	0x1834	; 0x1834 <PC_getchar>
     3ac:	f0 16       	cp	r15, r16
     3ae:	11 f0       	breq	.+4      	; 0x3b4 <HMI_Transceiver_get+0x62>
     3b0:	83 e0       	ldi	r24, 0x03	; 3
     3b2:	07 c0       	rjmp	.+14     	; 0x3c2 <HMI_Transceiver_get+0x70>
     3b4:	81 17       	cp	r24, r17
     3b6:	11 f4       	brne	.+4      	; 0x3bc <HMI_Transceiver_get+0x6a>
     3b8:	80 e0       	ldi	r24, 0x00	; 0
     3ba:	03 c0       	rjmp	.+6      	; 0x3c2 <HMI_Transceiver_get+0x70>
     3bc:	84 e0       	ldi	r24, 0x04	; 4
     3be:	01 c0       	rjmp	.+2      	; 0x3c2 <HMI_Transceiver_get+0x70>
     3c0:	82 e0       	ldi	r24, 0x02	; 2
     3c2:	df 91       	pop	r29
     3c4:	cf 91       	pop	r28
     3c6:	1f 91       	pop	r17
     3c8:	0f 91       	pop	r16
     3ca:	ff 90       	pop	r15
     3cc:	ef 90       	pop	r14
     3ce:	df 90       	pop	r13
     3d0:	08 95       	ret

000003d2 <HMI_Structure_get>:
     3d2:	af 92       	push	r10
     3d4:	bf 92       	push	r11
     3d6:	cf 92       	push	r12
     3d8:	df 92       	push	r13
     3da:	ef 92       	push	r14
     3dc:	ff 92       	push	r15
     3de:	0f 93       	push	r16
     3e0:	1f 93       	push	r17
     3e2:	cf 93       	push	r28
     3e4:	df 93       	push	r29
     3e6:	18 2f       	mov	r17, r24
     3e8:	09 2f       	mov	r16, r25
     3ea:	e6 2e       	mov	r14, r22
     3ec:	b4 2e       	mov	r11, r20
     3ee:	a5 2e       	mov	r10, r21
     3f0:	2f ef       	ldi	r18, 0xFF	; 255
     3f2:	62 17       	cp	r22, r18
     3f4:	11 f4       	brne	.+4      	; 0x3fa <HMI_Structure_get+0x28>
     3f6:	81 e0       	ldi	r24, 0x01	; 1
     3f8:	45 c0       	rjmp	.+138    	; 0x484 <HMI_Structure_get+0xb2>
     3fa:	0e 94 1a 0c 	call	0x1834	; 0x1834 <PC_getchar>
     3fe:	8b 3a       	cpi	r24, 0xAB	; 171
     400:	09 f0       	breq	.+2      	; 0x404 <HMI_Structure_get+0x32>
     402:	3f c0       	rjmp	.+126    	; 0x482 <HMI_Structure_get+0xb0>
     404:	0e 94 1a 0c 	call	0x1834	; 0x1834 <PC_getchar>
     408:	8b 3a       	cpi	r24, 0xAB	; 171
     40a:	d9 f5       	brne	.+118    	; 0x482 <HMI_Structure_get+0xb0>
     40c:	0e 94 1a 0c 	call	0x1834	; 0x1834 <PC_getchar>
     410:	8b 3a       	cpi	r24, 0xAB	; 171
     412:	b9 f5       	brne	.+110    	; 0x482 <HMI_Structure_get+0xb0>
     414:	0e 94 1a 0c 	call	0x1834	; 0x1834 <PC_getchar>
     418:	f8 2e       	mov	r15, r24
     41a:	0e 94 1a 0c 	call	0x1834	; 0x1834 <PC_getchar>
     41e:	c8 2e       	mov	r12, r24
     420:	a1 2f       	mov	r26, r17
     422:	b0 2f       	mov	r27, r16
     424:	fd 01       	movw	r30, r26
     426:	01 90       	ld	r0, Z+
     428:	00 20       	and	r0, r0
     42a:	e9 f7       	brne	.-6      	; 0x426 <HMI_Structure_get+0x54>
     42c:	31 97       	sbiw	r30, 0x01	; 1
     42e:	de 2e       	mov	r13, r30
     430:	d1 1a       	sub	r13, r17
     432:	21 2f       	mov	r18, r17
     434:	30 2f       	mov	r19, r16
     436:	c9 01       	movw	r24, r18
     438:	ec 01       	movw	r28, r24
     43a:	0c 2d       	mov	r16, r12
     43c:	10 e0       	ldi	r17, 0x00	; 0
     43e:	05 c0       	rjmp	.+10     	; 0x44a <HMI_Structure_get+0x78>
     440:	0e 94 1a 0c 	call	0x1834	; 0x1834 <PC_getchar>
     444:	89 93       	st	Y+, r24
     446:	08 0f       	add	r16, r24
     448:	1f 5f       	subi	r17, 0xFF	; 255
     44a:	1d 15       	cp	r17, r13
     44c:	c8 f3       	brcs	.-14     	; 0x440 <HMI_Structure_get+0x6e>
     44e:	8b 2d       	mov	r24, r11
     450:	9a 2d       	mov	r25, r10
     452:	9c 01       	movw	r18, r24
     454:	e9 01       	movw	r28, r18
     456:	04 c0       	rjmp	.+8      	; 0x460 <HMI_Structure_get+0x8e>
     458:	0e 94 1a 0c 	call	0x1834	; 0x1834 <PC_getchar>
     45c:	89 93       	st	Y+, r24
     45e:	08 0f       	add	r16, r24
     460:	9e 01       	movw	r18, r28
     462:	2b 19       	sub	r18, r11
     464:	2e 15       	cp	r18, r14
     466:	c0 f3       	brcs	.-16     	; 0x458 <HMI_Structure_get+0x86>
     468:	0e 94 1a 0c 	call	0x1834	; 0x1834 <PC_getchar>
     46c:	fc 18       	sub	r15, r12
     46e:	fe 14       	cp	r15, r14
     470:	11 f0       	breq	.+4      	; 0x476 <HMI_Structure_get+0xa4>
     472:	83 e0       	ldi	r24, 0x03	; 3
     474:	07 c0       	rjmp	.+14     	; 0x484 <HMI_Structure_get+0xb2>
     476:	80 17       	cp	r24, r16
     478:	11 f4       	brne	.+4      	; 0x47e <HMI_Structure_get+0xac>
     47a:	80 e0       	ldi	r24, 0x00	; 0
     47c:	03 c0       	rjmp	.+6      	; 0x484 <HMI_Structure_get+0xb2>
     47e:	84 e0       	ldi	r24, 0x04	; 4
     480:	01 c0       	rjmp	.+2      	; 0x484 <HMI_Structure_get+0xb2>
     482:	82 e0       	ldi	r24, 0x02	; 2
     484:	df 91       	pop	r29
     486:	cf 91       	pop	r28
     488:	1f 91       	pop	r17
     48a:	0f 91       	pop	r16
     48c:	ff 90       	pop	r15
     48e:	ef 90       	pop	r14
     490:	df 90       	pop	r13
     492:	cf 90       	pop	r12
     494:	bf 90       	pop	r11
     496:	af 90       	pop	r10
     498:	08 95       	ret

0000049a <HMI_Structure_put>:
     49a:	af 92       	push	r10
     49c:	bf 92       	push	r11
     49e:	cf 92       	push	r12
     4a0:	df 92       	push	r13
     4a2:	ef 92       	push	r14
     4a4:	ff 92       	push	r15
     4a6:	0f 93       	push	r16
     4a8:	1f 93       	push	r17
     4aa:	cf 93       	push	r28
     4ac:	df 93       	push	r29
     4ae:	d8 2e       	mov	r13, r24
     4b0:	c9 2e       	mov	r12, r25
     4b2:	e6 2e       	mov	r14, r22
     4b4:	b4 2e       	mov	r11, r20
     4b6:	a5 2e       	mov	r10, r21
     4b8:	8b eb       	ldi	r24, 0xBB	; 187
     4ba:	0e 94 16 0c 	call	0x182c	; 0x182c <PC_putchar>
     4be:	8b eb       	ldi	r24, 0xBB	; 187
     4c0:	0e 94 16 0c 	call	0x182c	; 0x182c <PC_putchar>
     4c4:	8b eb       	ldi	r24, 0xBB	; 187
     4c6:	0e 94 16 0c 	call	0x182c	; 0x182c <PC_putchar>
     4ca:	ed 2d       	mov	r30, r13
     4cc:	fc 2d       	mov	r31, r12
     4ce:	ef 01       	movw	r28, r30
     4d0:	09 90       	ld	r0, Y+
     4d2:	00 20       	and	r0, r0
     4d4:	e9 f7       	brne	.-6      	; 0x4d0 <HMI_Structure_put+0x36>
     4d6:	21 97       	sbiw	r28, 0x01	; 1
     4d8:	ce 1b       	sub	r28, r30
     4da:	df 0b       	sbc	r29, r31
     4dc:	0c 2f       	mov	r16, r28
     4de:	8c 2f       	mov	r24, r28
     4e0:	90 e0       	ldi	r25, 0x00	; 0
     4e2:	01 96       	adiw	r24, 0x01	; 1
     4e4:	8e 0d       	add	r24, r14
     4e6:	91 1d       	adc	r25, r1
     4e8:	8f 3f       	cpi	r24, 0xFF	; 255
     4ea:	91 05       	cpc	r25, r1
     4ec:	19 f0       	breq	.+6      	; 0x4f4 <HMI_Structure_put+0x5a>
     4ee:	14 f0       	brlt	.+4      	; 0x4f4 <HMI_Structure_put+0x5a>
     4f0:	81 e0       	ldi	r24, 0x01	; 1
     4f2:	2c c0       	rjmp	.+88     	; 0x54c <HMI_Structure_put+0xb2>
     4f4:	0f 5f       	subi	r16, 0xFF	; 255
     4f6:	10 2f       	mov	r17, r16
     4f8:	1e 0d       	add	r17, r14
     4fa:	01 50       	subi	r16, 0x01	; 1
     4fc:	81 2f       	mov	r24, r17
     4fe:	0e 94 16 0c 	call	0x182c	; 0x182c <PC_putchar>
     502:	8c 2f       	mov	r24, r28
     504:	0e 94 16 0c 	call	0x182c	; 0x182c <PC_putchar>
     508:	f1 2e       	mov	r15, r17
     50a:	f0 0e       	add	r15, r16
     50c:	2d 2d       	mov	r18, r13
     50e:	3c 2d       	mov	r19, r12
     510:	c9 01       	movw	r24, r18
     512:	ec 01       	movw	r28, r24
     514:	10 e0       	ldi	r17, 0x00	; 0
     516:	06 c0       	rjmp	.+12     	; 0x524 <HMI_Structure_put+0x8a>
     518:	88 81       	ld	r24, Y
     51a:	0e 94 16 0c 	call	0x182c	; 0x182c <PC_putchar>
     51e:	89 91       	ld	r24, Y+
     520:	f8 0e       	add	r15, r24
     522:	1f 5f       	subi	r17, 0xFF	; 255
     524:	10 17       	cp	r17, r16
     526:	c0 f3       	brcs	.-16     	; 0x518 <HMI_Structure_put+0x7e>
     528:	8b 2d       	mov	r24, r11
     52a:	9a 2d       	mov	r25, r10
     52c:	9c 01       	movw	r18, r24
     52e:	e9 01       	movw	r28, r18
     530:	00 e0       	ldi	r16, 0x00	; 0
     532:	06 c0       	rjmp	.+12     	; 0x540 <HMI_Structure_put+0xa6>
     534:	88 81       	ld	r24, Y
     536:	0e 94 16 0c 	call	0x182c	; 0x182c <PC_putchar>
     53a:	89 91       	ld	r24, Y+
     53c:	f8 0e       	add	r15, r24
     53e:	0f 5f       	subi	r16, 0xFF	; 255
     540:	0e 15       	cp	r16, r14
     542:	c0 f3       	brcs	.-16     	; 0x534 <HMI_Structure_put+0x9a>
     544:	8f 2d       	mov	r24, r15
     546:	0e 94 16 0c 	call	0x182c	; 0x182c <PC_putchar>
     54a:	80 e0       	ldi	r24, 0x00	; 0
     54c:	df 91       	pop	r29
     54e:	cf 91       	pop	r28
     550:	1f 91       	pop	r17
     552:	0f 91       	pop	r16
     554:	ff 90       	pop	r15
     556:	ef 90       	pop	r14
     558:	df 90       	pop	r13
     55a:	cf 90       	pop	r12
     55c:	bf 90       	pop	r11
     55e:	af 90       	pop	r10
     560:	08 95       	ret

00000562 <HMI_Transceiver_put>:
     562:	ef 92       	push	r14
     564:	ff 92       	push	r15
     566:	0f 93       	push	r16
     568:	1f 93       	push	r17
     56a:	cf 93       	push	r28
     56c:	df 93       	push	r29
     56e:	08 2f       	mov	r16, r24
     570:	7b 01       	movw	r14, r22
     572:	81 32       	cpi	r24, 0x21	; 33
     574:	10 f0       	brcs	.+4      	; 0x57a <HMI_Transceiver_put+0x18>
     576:	81 e0       	ldi	r24, 0x01	; 1
     578:	1c c0       	rjmp	.+56     	; 0x5b2 <HMI_Transceiver_put+0x50>
     57a:	8a ea       	ldi	r24, 0xAA	; 170
     57c:	0e 94 16 0c 	call	0x182c	; 0x182c <PC_putchar>
     580:	8a ea       	ldi	r24, 0xAA	; 170
     582:	0e 94 16 0c 	call	0x182c	; 0x182c <PC_putchar>
     586:	8a ea       	ldi	r24, 0xAA	; 170
     588:	0e 94 16 0c 	call	0x182c	; 0x182c <PC_putchar>
     58c:	80 2f       	mov	r24, r16
     58e:	0e 94 16 0c 	call	0x182c	; 0x182c <PC_putchar>
     592:	10 2f       	mov	r17, r16
     594:	e7 01       	movw	r28, r14
     596:	05 c0       	rjmp	.+10     	; 0x5a2 <HMI_Transceiver_put+0x40>
     598:	88 81       	ld	r24, Y
     59a:	0e 94 16 0c 	call	0x182c	; 0x182c <PC_putchar>
     59e:	89 91       	ld	r24, Y+
     5a0:	18 0f       	add	r17, r24
     5a2:	9e 01       	movw	r18, r28
     5a4:	2e 19       	sub	r18, r14
     5a6:	20 17       	cp	r18, r16
     5a8:	b8 f3       	brcs	.-18     	; 0x598 <HMI_Transceiver_put+0x36>
     5aa:	81 2f       	mov	r24, r17
     5ac:	0e 94 16 0c 	call	0x182c	; 0x182c <PC_putchar>
     5b0:	80 e0       	ldi	r24, 0x00	; 0
     5b2:	df 91       	pop	r29
     5b4:	cf 91       	pop	r28
     5b6:	1f 91       	pop	r17
     5b8:	0f 91       	pop	r16
     5ba:	ff 90       	pop	r15
     5bc:	ef 90       	pop	r14
     5be:	08 95       	ret

000005c0 <ASA_M128_set>:
     5c0:	10 92 90 00 	sts	0x0090, r1
     5c4:	91 e1       	ldi	r25, 0x11	; 17
     5c6:	99 b9       	out	0x09, r25	; 9
     5c8:	8a b1       	in	r24, 0x0a	; 10
     5ca:	88 61       	ori	r24, 0x18	; 24
     5cc:	8a b9       	out	0x0a, r24	; 10
     5ce:	e5 e9       	ldi	r30, 0x95	; 149
     5d0:	f0 e0       	ldi	r31, 0x00	; 0
     5d2:	80 81       	ld	r24, Z
     5d4:	86 60       	ori	r24, 0x06	; 6
     5d6:	80 83       	st	Z, r24
     5d8:	10 92 98 00 	sts	0x0098, r1
     5dc:	90 93 99 00 	sts	0x0099, r25
     5e0:	ea e9       	ldi	r30, 0x9A	; 154
     5e2:	f0 e0       	ldi	r31, 0x00	; 0
     5e4:	80 81       	ld	r24, Z
     5e6:	88 61       	ori	r24, 0x18	; 24
     5e8:	80 83       	st	Z, r24
     5ea:	ed e9       	ldi	r30, 0x9D	; 157
     5ec:	f0 e0       	ldi	r31, 0x00	; 0
     5ee:	80 81       	ld	r24, Z
     5f0:	86 60       	ori	r24, 0x06	; 6
     5f2:	80 83       	st	Z, r24
     5f4:	81 e2       	ldi	r24, 0x21	; 33
     5f6:	91 e0       	ldi	r25, 0x01	; 1
     5f8:	90 93 ec 01 	sts	0x01EC, r25
     5fc:	80 93 eb 01 	sts	0x01EB, r24
     600:	90 93 ea 01 	sts	0x01EA, r25
     604:	80 93 e9 01 	sts	0x01E9, r24
     608:	87 b3       	in	r24, 0x17	; 23
     60a:	80 6e       	ori	r24, 0xE0	; 224
     60c:	87 bb       	out	0x17, r24	; 23
     60e:	80 e0       	ldi	r24, 0x00	; 0
     610:	0e 94 b7 0b 	call	0x176e	; 0x176e <ASA_ID_set>
     614:	0e 94 20 03 	call	0x640	; 0x640 <timer1_set>
     618:	78 94       	sei
     61a:	80 e0       	ldi	r24, 0x00	; 0
     61c:	08 95       	ret

0000061e <FrcStSw>:
     61e:	fc 01       	movw	r30, r24
     620:	60 83       	st	Z, r22
     622:	08 95       	ret

00000624 <EnUnpk>:
     624:	10 92 b7 01 	sts	0x01B7, r1
     628:	ea e9       	ldi	r30, 0x9A	; 154
     62a:	f0 e0       	ldi	r31, 0x00	; 0
     62c:	80 81       	ld	r24, Z
     62e:	80 68       	ori	r24, 0x80	; 128
     630:	80 83       	st	Z, r24
     632:	08 95       	ret

00000634 <DisUnpk>:
     634:	ea e9       	ldi	r30, 0x9A	; 154
     636:	f0 e0       	ldi	r31, 0x00	; 0
     638:	80 81       	ld	r24, Z
     63a:	8f 77       	andi	r24, 0x7F	; 127
     63c:	80 83       	st	Z, r24
     63e:	08 95       	ret

00000640 <timer1_set>:
     640:	8e b5       	in	r24, 0x2e	; 46
     642:	88 60       	ori	r24, 0x08	; 8
     644:	8e bd       	out	0x2e, r24	; 46
     646:	8e b5       	in	r24, 0x2e	; 46
     648:	82 60       	ori	r24, 0x02	; 2
     64a:	8e bd       	out	0x2e, r24	; 46
     64c:	87 b7       	in	r24, 0x37	; 55
     64e:	80 61       	ori	r24, 0x10	; 16
     650:	87 bf       	out	0x37, r24	; 55
     652:	8f e8       	ldi	r24, 0x8F	; 143
     654:	90 e0       	ldi	r25, 0x00	; 0
     656:	9b bd       	out	0x2b, r25	; 43
     658:	8a bd       	out	0x2a, r24	; 42
     65a:	1d bc       	out	0x2d, r1	; 45
     65c:	1c bc       	out	0x2c, r1	; 44
     65e:	08 95       	ret

00000660 <RstTimeout>:
     660:	8e e1       	ldi	r24, 0x1E	; 30
     662:	80 93 e6 01 	sts	0x01E6, r24
     666:	08 95       	ret

00000668 <BatchBuffer_put>:
     668:	0f 93       	push	r16
     66a:	1f 93       	push	r17
     66c:	cf 93       	push	r28
     66e:	df 93       	push	r29
     670:	ec 01       	movw	r28, r24
     672:	8a 01       	movw	r16, r20
     674:	89 81       	ldd	r24, Y+1	; 0x01
     676:	70 e0       	ldi	r23, 0x00	; 0
     678:	e8 2f       	mov	r30, r24
     67a:	f0 e0       	ldi	r31, 0x00	; 0
     67c:	9b 01       	movw	r18, r22
     67e:	2e 0f       	add	r18, r30
     680:	3f 1f       	adc	r19, r31
     682:	8a 81       	ldd	r24, Y+2	; 0x02
     684:	90 e0       	ldi	r25, 0x00	; 0
     686:	82 17       	cp	r24, r18
     688:	93 07       	cpc	r25, r19
     68a:	64 f1       	brlt	.+88     	; 0x6e4 <BatchBuffer_put+0x7c>
     68c:	af 01       	movw	r20, r30
     68e:	4c 5f       	subi	r20, 0xFC	; 252
     690:	5f 4f       	sbci	r21, 0xFF	; 255
     692:	4c 0f       	add	r20, r28
     694:	5d 1f       	adc	r21, r29
     696:	20 e0       	ldi	r18, 0x00	; 0
     698:	30 e0       	ldi	r19, 0x00	; 0
     69a:	0d c0       	rjmp	.+26     	; 0x6b6 <BatchBuffer_put+0x4e>
     69c:	da 01       	movw	r26, r20
     69e:	a2 0f       	add	r26, r18
     6a0:	b3 1f       	adc	r27, r19
     6a2:	f8 01       	movw	r30, r16
     6a4:	e2 0f       	add	r30, r18
     6a6:	f3 1f       	adc	r31, r19
     6a8:	80 81       	ld	r24, Z
     6aa:	8c 93       	st	X, r24
     6ac:	88 81       	ld	r24, Y
     6ae:	8f 5f       	subi	r24, 0xFF	; 255
     6b0:	88 83       	st	Y, r24
     6b2:	2f 5f       	subi	r18, 0xFF	; 255
     6b4:	3f 4f       	sbci	r19, 0xFF	; 255
     6b6:	26 17       	cp	r18, r22
     6b8:	37 07       	cpc	r19, r23
     6ba:	84 f3       	brlt	.-32     	; 0x69c <BatchBuffer_put+0x34>
     6bc:	58 81       	ld	r21, Y
     6be:	49 81       	ldd	r20, Y+1	; 0x01
     6c0:	24 2f       	mov	r18, r20
     6c2:	30 e0       	ldi	r19, 0x00	; 0
     6c4:	25 0f       	add	r18, r21
     6c6:	31 1d       	adc	r19, r1
     6c8:	8a 81       	ldd	r24, Y+2	; 0x02
     6ca:	90 e0       	ldi	r25, 0x00	; 0
     6cc:	45 0f       	add	r20, r21
     6ce:	28 17       	cp	r18, r24
     6d0:	39 07       	cpc	r19, r25
     6d2:	11 f4       	brne	.+4      	; 0x6d8 <BatchBuffer_put+0x70>
     6d4:	81 e0       	ldi	r24, 0x01	; 1
     6d6:	01 c0       	rjmp	.+2      	; 0x6da <BatchBuffer_put+0x72>
     6d8:	82 e0       	ldi	r24, 0x02	; 2
     6da:	8b 83       	std	Y+3, r24	; 0x03
     6dc:	49 83       	std	Y+1, r20	; 0x01
     6de:	18 82       	st	Y, r1
     6e0:	80 e0       	ldi	r24, 0x00	; 0
     6e2:	02 c0       	rjmp	.+4      	; 0x6e8 <BatchBuffer_put+0x80>
     6e4:	81 e0       	ldi	r24, 0x01	; 1
     6e6:	8b 83       	std	Y+3, r24	; 0x03
     6e8:	df 91       	pop	r29
     6ea:	cf 91       	pop	r28
     6ec:	1f 91       	pop	r17
     6ee:	0f 91       	pop	r16
     6f0:	08 95       	ret

000006f2 <BatchBuffer_get>:
     6f2:	0f 93       	push	r16
     6f4:	1f 93       	push	r17
     6f6:	cf 93       	push	r28
     6f8:	df 93       	push	r29
     6fa:	ec 01       	movw	r28, r24
     6fc:	96 2f       	mov	r25, r22
     6fe:	89 81       	ldd	r24, Y+1	; 0x01
     700:	86 17       	cp	r24, r22
     702:	10 f4       	brcc	.+4      	; 0x708 <BatchBuffer_get+0x16>
     704:	81 e0       	ldi	r24, 0x01	; 1
     706:	42 c0       	rjmp	.+132    	; 0x78c <BatchBuffer_get+0x9a>
     708:	88 81       	ld	r24, Y
     70a:	68 2f       	mov	r22, r24
     70c:	70 e0       	ldi	r23, 0x00	; 0
     70e:	6c 5f       	subi	r22, 0xFC	; 252
     710:	7f 4f       	sbci	r23, 0xFF	; 255
     712:	6c 0f       	add	r22, r28
     714:	7d 1f       	adc	r23, r29
     716:	20 e0       	ldi	r18, 0x00	; 0
     718:	30 e0       	ldi	r19, 0x00	; 0
     71a:	09 2f       	mov	r16, r25
     71c:	10 e0       	ldi	r17, 0x00	; 0
     71e:	0d c0       	rjmp	.+26     	; 0x73a <BatchBuffer_get+0x48>
     720:	da 01       	movw	r26, r20
     722:	a2 0f       	add	r26, r18
     724:	b3 1f       	adc	r27, r19
     726:	fb 01       	movw	r30, r22
     728:	e2 0f       	add	r30, r18
     72a:	f3 1f       	adc	r31, r19
     72c:	80 81       	ld	r24, Z
     72e:	8c 93       	st	X, r24
     730:	88 81       	ld	r24, Y
     732:	8f 5f       	subi	r24, 0xFF	; 255
     734:	88 83       	st	Y, r24
     736:	2f 5f       	subi	r18, 0xFF	; 255
     738:	3f 4f       	sbci	r19, 0xFF	; 255
     73a:	20 17       	cp	r18, r16
     73c:	31 07       	cpc	r19, r17
     73e:	84 f3       	brlt	.-32     	; 0x720 <BatchBuffer_get+0x2e>
     740:	88 81       	ld	r24, Y
     742:	08 2f       	mov	r16, r24
     744:	10 e0       	ldi	r17, 0x00	; 0
     746:	db 01       	movw	r26, r22
     748:	a0 0f       	add	r26, r16
     74a:	b1 1f       	adc	r27, r17
     74c:	40 e0       	ldi	r20, 0x00	; 0
     74e:	50 e0       	ldi	r21, 0x00	; 0
     750:	08 c0       	rjmp	.+16     	; 0x762 <BatchBuffer_get+0x70>
     752:	fb 01       	movw	r30, r22
     754:	e4 0f       	add	r30, r20
     756:	f5 1f       	adc	r31, r21
     758:	8c 91       	ld	r24, X
     75a:	80 83       	st	Z, r24
     75c:	1d 92       	st	X+, r1
     75e:	4f 5f       	subi	r20, 0xFF	; 255
     760:	5f 4f       	sbci	r21, 0xFF	; 255
     762:	e9 81       	ldd	r30, Y+1	; 0x01
     764:	9a 01       	movw	r18, r20
     766:	20 0f       	add	r18, r16
     768:	31 1f       	adc	r19, r17
     76a:	8e 2f       	mov	r24, r30
     76c:	90 e0       	ldi	r25, 0x00	; 0
     76e:	28 17       	cp	r18, r24
     770:	39 07       	cpc	r19, r25
     772:	7c f3       	brlt	.-34     	; 0x752 <BatchBuffer_get+0x60>
     774:	98 81       	ld	r25, Y
     776:	9e 17       	cp	r25, r30
     778:	19 f4       	brne	.+6      	; 0x780 <BatchBuffer_get+0x8e>
     77a:	1b 82       	std	Y+3, r1	; 0x03
     77c:	19 82       	std	Y+1, r1	; 0x01
     77e:	04 c0       	rjmp	.+8      	; 0x788 <BatchBuffer_get+0x96>
     780:	82 e0       	ldi	r24, 0x02	; 2
     782:	8b 83       	std	Y+3, r24	; 0x03
     784:	e9 1b       	sub	r30, r25
     786:	e9 83       	std	Y+1, r30	; 0x01
     788:	18 82       	st	Y, r1
     78a:	80 e0       	ldi	r24, 0x00	; 0
     78c:	df 91       	pop	r29
     78e:	cf 91       	pop	r28
     790:	1f 91       	pop	r17
     792:	0f 91       	pop	r16
     794:	08 95       	ret

00000796 <__vector_32>:
     796:	1f 92       	push	r1
     798:	0f 92       	push	r0
     79a:	0f b6       	in	r0, 0x3f	; 63
     79c:	0f 92       	push	r0
     79e:	0b b6       	in	r0, 0x3b	; 59
     7a0:	0f 92       	push	r0
     7a2:	11 24       	eor	r1, r1
     7a4:	2f 93       	push	r18
     7a6:	3f 93       	push	r19
     7a8:	4f 93       	push	r20
     7aa:	5f 93       	push	r21
     7ac:	6f 93       	push	r22
     7ae:	7f 93       	push	r23
     7b0:	8f 93       	push	r24
     7b2:	9f 93       	push	r25
     7b4:	af 93       	push	r26
     7b6:	bf 93       	push	r27
     7b8:	ef 93       	push	r30
     7ba:	ff 93       	push	r31
     7bc:	80 91 32 01 	lds	r24, 0x0132
     7c0:	88 23       	and	r24, r24
     7c2:	61 f0       	breq	.+24     	; 0x7dc <__vector_32+0x46>
     7c4:	8f e2       	ldi	r24, 0x2F	; 47
     7c6:	91 e0       	ldi	r25, 0x01	; 1
     7c8:	61 e0       	ldi	r22, 0x01	; 1
     7ca:	45 ee       	ldi	r20, 0xE5	; 229
     7cc:	51 e0       	ldi	r21, 0x01	; 1
     7ce:	0e 94 79 03 	call	0x6f2	; 0x6f2 <BatchBuffer_get>
     7d2:	80 91 e5 01 	lds	r24, 0x01E5
     7d6:	80 93 9c 00 	sts	0x009C, r24
     7da:	05 c0       	rjmp	.+10     	; 0x7e6 <__vector_32+0x50>
     7dc:	80 91 9a 00 	lds	r24, 0x009A
     7e0:	8f 7b       	andi	r24, 0xBF	; 191
     7e2:	80 93 9a 00 	sts	0x009A, r24
     7e6:	ff 91       	pop	r31
     7e8:	ef 91       	pop	r30
     7ea:	bf 91       	pop	r27
     7ec:	af 91       	pop	r26
     7ee:	9f 91       	pop	r25
     7f0:	8f 91       	pop	r24
     7f2:	7f 91       	pop	r23
     7f4:	6f 91       	pop	r22
     7f6:	5f 91       	pop	r21
     7f8:	4f 91       	pop	r20
     7fa:	3f 91       	pop	r19
     7fc:	2f 91       	pop	r18
     7fe:	0f 90       	pop	r0
     800:	0b be       	out	0x3b, r0	; 59
     802:	0f 90       	pop	r0
     804:	0f be       	out	0x3f, r0	; 63
     806:	0f 90       	pop	r0
     808:	1f 90       	pop	r1
     80a:	18 95       	reti

0000080c <BatchBuffer_full>:
     80c:	fc 01       	movw	r30, r24
     80e:	81 e0       	ldi	r24, 0x01	; 1
     810:	83 83       	std	Z+3, r24	; 0x03
     812:	08 95       	ret

00000814 <BatchBuffer_clear>:
     814:	fc 01       	movw	r30, r24
     816:	13 82       	std	Z+3, r1	; 0x03
     818:	11 82       	std	Z+1, r1	; 0x01
     81a:	10 82       	st	Z, r1
     81c:	80 e0       	ldi	r24, 0x00	; 0
     81e:	90 e0       	ldi	r25, 0x00	; 0
     820:	14 82       	std	Z+4, r1	; 0x04
     822:	01 96       	adiw	r24, 0x01	; 1
     824:	31 96       	adiw	r30, 0x01	; 1
     826:	80 32       	cpi	r24, 0x20	; 32
     828:	91 05       	cpc	r25, r1
     82a:	d1 f7       	brne	.-12     	; 0x820 <BatchBuffer_clear+0xc>
     82c:	08 95       	ret

0000082e <__vector_30>:
     82e:	1f 92       	push	r1
     830:	0f 92       	push	r0
     832:	0f b6       	in	r0, 0x3f	; 63
     834:	0f 92       	push	r0
     836:	0b b6       	in	r0, 0x3b	; 59
     838:	0f 92       	push	r0
     83a:	11 24       	eor	r1, r1
     83c:	2f 93       	push	r18
     83e:	3f 93       	push	r19
     840:	4f 93       	push	r20
     842:	5f 93       	push	r21
     844:	6f 93       	push	r22
     846:	7f 93       	push	r23
     848:	8f 93       	push	r24
     84a:	9f 93       	push	r25
     84c:	af 93       	push	r26
     84e:	bf 93       	push	r27
     850:	ef 93       	push	r30
     852:	ff 93       	push	r31
     854:	90 91 9c 00 	lds	r25, 0x009C
     858:	90 93 be 01 	sts	0x01BE, r25
     85c:	80 91 b7 01 	lds	r24, 0x01B7
     860:	82 30       	cpi	r24, 0x02	; 2
     862:	31 f1       	breq	.+76     	; 0x8b0 <__vector_30+0x82>
     864:	83 30       	cpi	r24, 0x03	; 3
     866:	30 f4       	brcc	.+12     	; 0x874 <__vector_30+0x46>
     868:	88 23       	and	r24, r24
     86a:	59 f0       	breq	.+22     	; 0x882 <__vector_30+0x54>
     86c:	81 30       	cpi	r24, 0x01	; 1
     86e:	09 f0       	breq	.+2      	; 0x872 <__vector_30+0x44>
     870:	88 c0       	rjmp	.+272    	; 0x982 <__vector_30+0x154>
     872:	0c c0       	rjmp	.+24     	; 0x88c <__vector_30+0x5e>
     874:	83 30       	cpi	r24, 0x03	; 3
     876:	09 f4       	brne	.+2      	; 0x87a <__vector_30+0x4c>
     878:	4c c0       	rjmp	.+152    	; 0x912 <__vector_30+0xe4>
     87a:	84 30       	cpi	r24, 0x04	; 4
     87c:	09 f0       	breq	.+2      	; 0x880 <__vector_30+0x52>
     87e:	81 c0       	rjmp	.+258    	; 0x982 <__vector_30+0x154>
     880:	6c c0       	rjmp	.+216    	; 0x95a <__vector_30+0x12c>
     882:	90 3f       	cpi	r25, 0xF0	; 240
     884:	09 f0       	breq	.+2      	; 0x888 <__vector_30+0x5a>
     886:	65 c0       	rjmp	.+202    	; 0x952 <__vector_30+0x124>
     888:	81 e0       	ldi	r24, 0x01	; 1
     88a:	61 c0       	rjmp	.+194    	; 0x94e <__vector_30+0x120>
     88c:	80 91 90 01 	lds	r24, 0x0190
     890:	98 17       	cp	r25, r24
     892:	21 f4       	brne	.+8      	; 0x89c <__vector_30+0x6e>
     894:	82 e0       	ldi	r24, 0x02	; 2
     896:	80 93 b7 01 	sts	0x01B7, r24
     89a:	07 c0       	rjmp	.+14     	; 0x8aa <__vector_30+0x7c>
     89c:	10 92 b7 01 	sts	0x01B7, r1
     8a0:	80 91 9a 00 	lds	r24, 0x009A
     8a4:	8f 77       	andi	r24, 0x7F	; 127
     8a6:	80 93 9a 00 	sts	0x009A, r24
     8aa:	10 92 bf 01 	sts	0x01BF, r1
     8ae:	51 c0       	rjmp	.+162    	; 0x952 <__vector_30+0x124>
     8b0:	99 23       	and	r25, r25
     8b2:	b9 f4       	brne	.+46     	; 0x8e2 <__vector_30+0xb4>
     8b4:	80 91 91 01 	lds	r24, 0x0191
     8b8:	82 30       	cpi	r24, 0x02	; 2
     8ba:	39 f4       	brne	.+14     	; 0x8ca <__vector_30+0x9c>
     8bc:	83 e0       	ldi	r24, 0x03	; 3
     8be:	80 93 b7 01 	sts	0x01B7, r24
     8c2:	80 91 93 01 	lds	r24, 0x0193
     8c6:	90 e0       	ldi	r25, 0x00	; 0
     8c8:	07 c0       	rjmp	.+14     	; 0x8d8 <__vector_30+0xaa>
     8ca:	84 30       	cpi	r24, 0x04	; 4
     8cc:	51 f4       	brne	.+20     	; 0x8e2 <__vector_30+0xb4>
     8ce:	83 e0       	ldi	r24, 0x03	; 3
     8d0:	80 93 b7 01 	sts	0x01B7, r24
     8d4:	81 e0       	ldi	r24, 0x01	; 1
     8d6:	90 e0       	ldi	r25, 0x00	; 0
     8d8:	90 93 bd 01 	sts	0x01BD, r25
     8dc:	80 93 bc 01 	sts	0x01BC, r24
     8e0:	07 c0       	rjmp	.+14     	; 0x8f0 <__vector_30+0xc2>
     8e2:	84 e0       	ldi	r24, 0x04	; 4
     8e4:	80 93 b7 01 	sts	0x01B7, r24
     8e8:	10 92 bd 01 	sts	0x01BD, r1
     8ec:	10 92 bc 01 	sts	0x01BC, r1
     8f0:	83 e5       	ldi	r24, 0x53	; 83
     8f2:	91 e0       	ldi	r25, 0x01	; 1
     8f4:	61 e0       	ldi	r22, 0x01	; 1
     8f6:	4e eb       	ldi	r20, 0xBE	; 190
     8f8:	51 e0       	ldi	r21, 0x01	; 1
     8fa:	0e 94 34 03 	call	0x668	; 0x668 <BatchBuffer_put>
     8fe:	80 91 be 01 	lds	r24, 0x01BE
     902:	80 93 c3 01 	sts	0x01C3, r24
     906:	90 91 bf 01 	lds	r25, 0x01BF
     90a:	98 0f       	add	r25, r24
     90c:	90 93 bf 01 	sts	0x01BF, r25
     910:	20 c0       	rjmp	.+64     	; 0x952 <__vector_30+0x124>
     912:	83 e5       	ldi	r24, 0x53	; 83
     914:	91 e0       	ldi	r25, 0x01	; 1
     916:	61 e0       	ldi	r22, 0x01	; 1
     918:	4e eb       	ldi	r20, 0xBE	; 190
     91a:	51 e0       	ldi	r21, 0x01	; 1
     91c:	0e 94 34 03 	call	0x668	; 0x668 <BatchBuffer_put>
     920:	80 91 be 01 	lds	r24, 0x01BE
     924:	90 91 bf 01 	lds	r25, 0x01BF
     928:	89 0f       	add	r24, r25
     92a:	80 93 bf 01 	sts	0x01BF, r24
     92e:	80 91 bc 01 	lds	r24, 0x01BC
     932:	90 91 bd 01 	lds	r25, 0x01BD
     936:	01 97       	sbiw	r24, 0x01	; 1
     938:	90 93 bd 01 	sts	0x01BD, r25
     93c:	80 93 bc 01 	sts	0x01BC, r24
     940:	80 91 bc 01 	lds	r24, 0x01BC
     944:	90 91 bd 01 	lds	r25, 0x01BD
     948:	89 2b       	or	r24, r25
     94a:	19 f4       	brne	.+6      	; 0x952 <__vector_30+0x124>
     94c:	84 e0       	ldi	r24, 0x04	; 4
     94e:	80 93 b7 01 	sts	0x01B7, r24
     952:	8e e1       	ldi	r24, 0x1E	; 30
     954:	80 93 e6 01 	sts	0x01E6, r24
     958:	14 c0       	rjmp	.+40     	; 0x982 <__vector_30+0x154>
     95a:	80 91 bf 01 	lds	r24, 0x01BF
     95e:	98 17       	cp	r25, r24
     960:	21 f4       	brne	.+8      	; 0x96a <__vector_30+0x13c>
     962:	81 e0       	ldi	r24, 0x01	; 1
     964:	80 93 56 01 	sts	0x0156, r24
     968:	04 c0       	rjmp	.+8      	; 0x972 <__vector_30+0x144>
     96a:	83 e5       	ldi	r24, 0x53	; 83
     96c:	91 e0       	ldi	r25, 0x01	; 1
     96e:	0e 94 0a 04 	call	0x814	; 0x814 <BatchBuffer_clear>
     972:	8e e1       	ldi	r24, 0x1E	; 30
     974:	80 93 e6 01 	sts	0x01E6, r24
     978:	80 91 9a 00 	lds	r24, 0x009A
     97c:	8f 77       	andi	r24, 0x7F	; 127
     97e:	80 93 9a 00 	sts	0x009A, r24
     982:	ff 91       	pop	r31
     984:	ef 91       	pop	r30
     986:	bf 91       	pop	r27
     988:	af 91       	pop	r26
     98a:	9f 91       	pop	r25
     98c:	8f 91       	pop	r24
     98e:	7f 91       	pop	r23
     990:	6f 91       	pop	r22
     992:	5f 91       	pop	r21
     994:	4f 91       	pop	r20
     996:	3f 91       	pop	r19
     998:	2f 91       	pop	r18
     99a:	0f 90       	pop	r0
     99c:	0b be       	out	0x3b, r0	; 59
     99e:	0f 90       	pop	r0
     9a0:	0f be       	out	0x3f, r0	; 63
     9a2:	0f 90       	pop	r0
     9a4:	1f 90       	pop	r1
     9a6:	18 95       	reti

000009a8 <__vector_12>:
     9a8:	1f 92       	push	r1
     9aa:	0f 92       	push	r0
     9ac:	0f b6       	in	r0, 0x3f	; 63
     9ae:	0f 92       	push	r0
     9b0:	0b b6       	in	r0, 0x3b	; 59
     9b2:	0f 92       	push	r0
     9b4:	11 24       	eor	r1, r1
     9b6:	2f 93       	push	r18
     9b8:	3f 93       	push	r19
     9ba:	4f 93       	push	r20
     9bc:	5f 93       	push	r21
     9be:	6f 93       	push	r22
     9c0:	7f 93       	push	r23
     9c2:	8f 93       	push	r24
     9c4:	9f 93       	push	r25
     9c6:	af 93       	push	r26
     9c8:	bf 93       	push	r27
     9ca:	ef 93       	push	r30
     9cc:	ff 93       	push	r31
     9ce:	80 91 b8 01 	lds	r24, 0x01B8
     9d2:	81 30       	cpi	r24, 0x01	; 1
     9d4:	79 f0       	breq	.+30     	; 0x9f4 <__vector_12+0x4c>
     9d6:	81 30       	cpi	r24, 0x01	; 1
     9d8:	18 f0       	brcs	.+6      	; 0x9e0 <__vector_12+0x38>
     9da:	82 30       	cpi	r24, 0x02	; 2
     9dc:	61 f5       	brne	.+88     	; 0xa36 <__vector_12+0x8e>
     9de:	25 c0       	rjmp	.+74     	; 0xa2a <__vector_12+0x82>
     9e0:	90 91 bb 01 	lds	r25, 0x01BB
     9e4:	91 30       	cpi	r25, 0x01	; 1
     9e6:	39 f5       	brne	.+78     	; 0xa36 <__vector_12+0x8e>
     9e8:	8e e1       	ldi	r24, 0x1E	; 30
     9ea:	80 93 e6 01 	sts	0x01E6, r24
     9ee:	90 93 b8 01 	sts	0x01B8, r25
     9f2:	21 c0       	rjmp	.+66     	; 0xa36 <__vector_12+0x8e>
     9f4:	80 91 e6 01 	lds	r24, 0x01E6
     9f8:	81 50       	subi	r24, 0x01	; 1
     9fa:	80 93 e6 01 	sts	0x01E6, r24
     9fe:	80 91 e6 01 	lds	r24, 0x01E6
     a02:	88 23       	and	r24, r24
     a04:	69 f4       	brne	.+26     	; 0xa20 <__vector_12+0x78>
     a06:	80 91 9a 00 	lds	r24, 0x009A
     a0a:	8f 77       	andi	r24, 0x7F	; 127
     a0c:	80 93 9a 00 	sts	0x009A, r24
     a10:	83 e5       	ldi	r24, 0x53	; 83
     a12:	91 e0       	ldi	r25, 0x01	; 1
     a14:	0e 94 0a 04 	call	0x814	; 0x814 <BatchBuffer_clear>
     a18:	82 e0       	ldi	r24, 0x02	; 2
     a1a:	80 93 b8 01 	sts	0x01B8, r24
     a1e:	0b c0       	rjmp	.+22     	; 0xa36 <__vector_12+0x8e>
     a20:	80 91 9a 00 	lds	r24, 0x009A
     a24:	87 fd       	sbrc	r24, 7
     a26:	07 c0       	rjmp	.+14     	; 0xa36 <__vector_12+0x8e>
     a28:	04 c0       	rjmp	.+8      	; 0xa32 <__vector_12+0x8a>
     a2a:	80 91 bb 01 	lds	r24, 0x01BB
     a2e:	88 23       	and	r24, r24
     a30:	11 f4       	brne	.+4      	; 0xa36 <__vector_12+0x8e>
     a32:	10 92 b8 01 	sts	0x01B8, r1
     a36:	ff 91       	pop	r31
     a38:	ef 91       	pop	r30
     a3a:	bf 91       	pop	r27
     a3c:	af 91       	pop	r26
     a3e:	9f 91       	pop	r25
     a40:	8f 91       	pop	r24
     a42:	7f 91       	pop	r23
     a44:	6f 91       	pop	r22
     a46:	5f 91       	pop	r21
     a48:	4f 91       	pop	r20
     a4a:	3f 91       	pop	r19
     a4c:	2f 91       	pop	r18
     a4e:	0f 90       	pop	r0
     a50:	0b be       	out	0x3b, r0	; 59
     a52:	0f 90       	pop	r0
     a54:	0f be       	out	0x3f, r0	; 63
     a56:	0f 90       	pop	r0
     a58:	1f 90       	pop	r1
     a5a:	18 95       	reti

00000a5c <ASA_RS485_fgt>:
     a5c:	ef 92       	push	r14
     a5e:	ff 92       	push	r15
     a60:	0f 93       	push	r16
     a62:	df 93       	push	r29
     a64:	cf 93       	push	r28
     a66:	cd b7       	in	r28, 0x3d	; 61
     a68:	de b7       	in	r29, 0x3e	; 62
     a6a:	28 97       	sbiw	r28, 0x08	; 8
     a6c:	0f b6       	in	r0, 0x3f	; 63
     a6e:	f8 94       	cli
     a70:	de bf       	out	0x3e, r29	; 62
     a72:	0f be       	out	0x3f, r0	; 63
     a74:	cd bf       	out	0x3d, r28	; 61
     a76:	6d 83       	std	Y+5, r22	; 0x05
     a78:	4e 83       	std	Y+6, r20	; 0x06
     a7a:	2f 83       	std	Y+7, r18	; 0x07
     a7c:	08 87       	std	Y+8, r16	; 0x08
     a7e:	19 82       	std	Y+1, r1	; 0x01
     a80:	94 e0       	ldi	r25, 0x04	; 4
     a82:	9a 83       	std	Y+2, r25	; 0x02
     a84:	0e 94 b7 0b 	call	0x176e	; 0x176e <ASA_ID_set>
     a88:	80 91 61 00 	lds	r24, 0x0061
     a8c:	80 61       	ori	r24, 0x10	; 16
     a8e:	80 93 61 00 	sts	0x0061, r24
     a92:	80 91 62 00 	lds	r24, 0x0062
     a96:	80 61       	ori	r24, 0x10	; 16
     a98:	80 93 62 00 	sts	0x0062, r24
     a9c:	8a 81       	ldd	r24, Y+2	; 0x02
     a9e:	99 81       	ldd	r25, Y+1	; 0x01
     aa0:	89 0f       	add	r24, r25
     aa2:	9e 81       	ldd	r25, Y+6	; 0x06
     aa4:	89 0f       	add	r24, r25
     aa6:	9f 81       	ldd	r25, Y+7	; 0x07
     aa8:	89 0f       	add	r24, r25
     aaa:	98 85       	ldd	r25, Y+8	; 0x08
     aac:	89 0f       	add	r24, r25
     aae:	89 83       	std	Y+1, r24	; 0x01
     ab0:	8f e2       	ldi	r24, 0x2F	; 47
     ab2:	91 e0       	ldi	r25, 0x01	; 1
     ab4:	61 e0       	ldi	r22, 0x01	; 1
     ab6:	ae 01       	movw	r20, r28
     ab8:	4b 5f       	subi	r20, 0xFB	; 251
     aba:	5f 4f       	sbci	r21, 0xFF	; 255
     abc:	0e 94 34 03 	call	0x668	; 0x668 <BatchBuffer_put>
     ac0:	8f e2       	ldi	r24, 0x2F	; 47
     ac2:	91 e0       	ldi	r25, 0x01	; 1
     ac4:	61 e0       	ldi	r22, 0x01	; 1
     ac6:	ae 01       	movw	r20, r28
     ac8:	4e 5f       	subi	r20, 0xFE	; 254
     aca:	5f 4f       	sbci	r21, 0xFF	; 255
     acc:	0e 94 34 03 	call	0x668	; 0x668 <BatchBuffer_put>
     ad0:	8f e2       	ldi	r24, 0x2F	; 47
     ad2:	91 e0       	ldi	r25, 0x01	; 1
     ad4:	61 e0       	ldi	r22, 0x01	; 1
     ad6:	ae 01       	movw	r20, r28
     ad8:	4a 5f       	subi	r20, 0xFA	; 250
     ada:	5f 4f       	sbci	r21, 0xFF	; 255
     adc:	0e 94 34 03 	call	0x668	; 0x668 <BatchBuffer_put>
     ae0:	8f e2       	ldi	r24, 0x2F	; 47
     ae2:	91 e0       	ldi	r25, 0x01	; 1
     ae4:	61 e0       	ldi	r22, 0x01	; 1
     ae6:	ae 01       	movw	r20, r28
     ae8:	49 5f       	subi	r20, 0xF9	; 249
     aea:	5f 4f       	sbci	r21, 0xFF	; 255
     aec:	0e 94 34 03 	call	0x668	; 0x668 <BatchBuffer_put>
     af0:	8f e2       	ldi	r24, 0x2F	; 47
     af2:	91 e0       	ldi	r25, 0x01	; 1
     af4:	61 e0       	ldi	r22, 0x01	; 1
     af6:	ae 01       	movw	r20, r28
     af8:	48 5f       	subi	r20, 0xF8	; 248
     afa:	5f 4f       	sbci	r21, 0xFF	; 255
     afc:	0e 94 34 03 	call	0x668	; 0x668 <BatchBuffer_put>
     b00:	8f e2       	ldi	r24, 0x2F	; 47
     b02:	91 e0       	ldi	r25, 0x01	; 1
     b04:	61 e0       	ldi	r22, 0x01	; 1
     b06:	ae 01       	movw	r20, r28
     b08:	4f 5f       	subi	r20, 0xFF	; 255
     b0a:	5f 4f       	sbci	r21, 0xFF	; 255
     b0c:	0e 94 34 03 	call	0x668	; 0x668 <BatchBuffer_put>
     b10:	8d 81       	ldd	r24, Y+5	; 0x05
     b12:	80 93 90 01 	sts	0x0190, r24
     b16:	8a 81       	ldd	r24, Y+2	; 0x02
     b18:	80 93 91 01 	sts	0x0191, r24
     b1c:	80 ef       	ldi	r24, 0xF0	; 240
     b1e:	0e 94 c5 0b 	call	0x178a	; 0x178a <UART1_putchar>
     b22:	80 91 9a 00 	lds	r24, 0x009A
     b26:	80 64       	ori	r24, 0x40	; 64
     b28:	80 93 9a 00 	sts	0x009A, r24
     b2c:	80 91 9a 00 	lds	r24, 0x009A
     b30:	86 fd       	sbrc	r24, 6
     b32:	fc cf       	rjmp	.-8      	; 0xb2c <ASA_RS485_fgt+0xd0>
     b34:	80 91 62 00 	lds	r24, 0x0062
     b38:	8f 7e       	andi	r24, 0xEF	; 239
     b3a:	80 93 62 00 	sts	0x0062, r24
     b3e:	10 92 b7 01 	sts	0x01B7, r1
     b42:	80 91 9a 00 	lds	r24, 0x009A
     b46:	80 68       	ori	r24, 0x80	; 128
     b48:	80 93 9a 00 	sts	0x009A, r24
     b4c:	81 e0       	ldi	r24, 0x01	; 1
     b4e:	80 93 bb 01 	sts	0x01BB, r24
     b52:	80 91 56 01 	lds	r24, 0x0156
     b56:	81 30       	cpi	r24, 0x01	; 1
     b58:	21 f0       	breq	.+8      	; 0xb62 <ASA_RS485_fgt+0x106>
     b5a:	80 91 b8 01 	lds	r24, 0x01B8
     b5e:	82 30       	cpi	r24, 0x02	; 2
     b60:	c1 f7       	brne	.-16     	; 0xb52 <ASA_RS485_fgt+0xf6>
     b62:	10 92 bb 01 	sts	0x01BB, r1
     b66:	80 91 56 01 	lds	r24, 0x0156
     b6a:	81 30       	cpi	r24, 0x01	; 1
     b6c:	11 f0       	breq	.+4      	; 0xb72 <ASA_RS485_fgt+0x116>
     b6e:	81 e0       	ldi	r24, 0x01	; 1
     b70:	19 c0       	rjmp	.+50     	; 0xba4 <ASA_RS485_fgt+0x148>
     b72:	83 e5       	ldi	r24, 0x53	; 83
     b74:	91 e0       	ldi	r25, 0x01	; 1
     b76:	61 e0       	ldi	r22, 0x01	; 1
     b78:	ae 01       	movw	r20, r28
     b7a:	4d 5f       	subi	r20, 0xFD	; 253
     b7c:	5f 4f       	sbci	r21, 0xFF	; 255
     b7e:	0e 94 79 03 	call	0x6f2	; 0x6f2 <BatchBuffer_get>
     b82:	8b 81       	ldd	r24, Y+3	; 0x03
     b84:	88 23       	and	r24, r24
     b86:	59 f4       	brne	.+22     	; 0xb9e <ASA_RS485_fgt+0x142>
     b88:	83 e5       	ldi	r24, 0x53	; 83
     b8a:	91 e0       	ldi	r25, 0x01	; 1
     b8c:	61 e0       	ldi	r22, 0x01	; 1
     b8e:	ae 01       	movw	r20, r28
     b90:	4c 5f       	subi	r20, 0xFC	; 252
     b92:	5f 4f       	sbci	r21, 0xFF	; 255
     b94:	0e 94 79 03 	call	0x6f2	; 0x6f2 <BatchBuffer_get>
     b98:	8c 81       	ldd	r24, Y+4	; 0x04
     b9a:	f7 01       	movw	r30, r14
     b9c:	80 83       	st	Z, r24
     b9e:	8b 81       	ldd	r24, Y+3	; 0x03
     ba0:	88 0f       	add	r24, r24
     ba2:	88 0f       	add	r24, r24
     ba4:	28 96       	adiw	r28, 0x08	; 8
     ba6:	0f b6       	in	r0, 0x3f	; 63
     ba8:	f8 94       	cli
     baa:	de bf       	out	0x3e, r29	; 62
     bac:	0f be       	out	0x3f, r0	; 63
     bae:	cd bf       	out	0x3d, r28	; 61
     bb0:	cf 91       	pop	r28
     bb2:	df 91       	pop	r29
     bb4:	0f 91       	pop	r16
     bb6:	ff 90       	pop	r15
     bb8:	ef 90       	pop	r14
     bba:	08 95       	ret

00000bbc <ASA_RS485_fpt>:
     bbc:	ef 92       	push	r14
     bbe:	0f 93       	push	r16
     bc0:	df 93       	push	r29
     bc2:	cf 93       	push	r28
     bc4:	cd b7       	in	r28, 0x3d	; 61
     bc6:	de b7       	in	r29, 0x3e	; 62
     bc8:	28 97       	sbiw	r28, 0x08	; 8
     bca:	0f b6       	in	r0, 0x3f	; 63
     bcc:	f8 94       	cli
     bce:	de bf       	out	0x3e, r29	; 62
     bd0:	0f be       	out	0x3f, r0	; 63
     bd2:	cd bf       	out	0x3d, r28	; 61
     bd4:	6c 83       	std	Y+4, r22	; 0x04
     bd6:	4d 83       	std	Y+5, r20	; 0x05
     bd8:	2e 83       	std	Y+6, r18	; 0x06
     bda:	0f 83       	std	Y+7, r16	; 0x07
     bdc:	e8 86       	std	Y+8, r14	; 0x08
     bde:	19 82       	std	Y+1, r1	; 0x01
     be0:	93 e0       	ldi	r25, 0x03	; 3
     be2:	9a 83       	std	Y+2, r25	; 0x02
     be4:	0e 94 b7 0b 	call	0x176e	; 0x176e <ASA_ID_set>
     be8:	80 91 61 00 	lds	r24, 0x0061
     bec:	80 61       	ori	r24, 0x10	; 16
     bee:	80 93 61 00 	sts	0x0061, r24
     bf2:	80 91 62 00 	lds	r24, 0x0062
     bf6:	80 61       	ori	r24, 0x10	; 16
     bf8:	80 93 62 00 	sts	0x0062, r24
     bfc:	8a 81       	ldd	r24, Y+2	; 0x02
     bfe:	99 81       	ldd	r25, Y+1	; 0x01
     c00:	89 0f       	add	r24, r25
     c02:	9d 81       	ldd	r25, Y+5	; 0x05
     c04:	89 0f       	add	r24, r25
     c06:	9e 81       	ldd	r25, Y+6	; 0x06
     c08:	89 0f       	add	r24, r25
     c0a:	9f 81       	ldd	r25, Y+7	; 0x07
     c0c:	89 0f       	add	r24, r25
     c0e:	98 85       	ldd	r25, Y+8	; 0x08
     c10:	89 0f       	add	r24, r25
     c12:	89 83       	std	Y+1, r24	; 0x01
     c14:	8f e2       	ldi	r24, 0x2F	; 47
     c16:	91 e0       	ldi	r25, 0x01	; 1
     c18:	61 e0       	ldi	r22, 0x01	; 1
     c1a:	ae 01       	movw	r20, r28
     c1c:	4c 5f       	subi	r20, 0xFC	; 252
     c1e:	5f 4f       	sbci	r21, 0xFF	; 255
     c20:	0e 94 34 03 	call	0x668	; 0x668 <BatchBuffer_put>
     c24:	8f e2       	ldi	r24, 0x2F	; 47
     c26:	91 e0       	ldi	r25, 0x01	; 1
     c28:	61 e0       	ldi	r22, 0x01	; 1
     c2a:	ae 01       	movw	r20, r28
     c2c:	4e 5f       	subi	r20, 0xFE	; 254
     c2e:	5f 4f       	sbci	r21, 0xFF	; 255
     c30:	0e 94 34 03 	call	0x668	; 0x668 <BatchBuffer_put>
     c34:	8f e2       	ldi	r24, 0x2F	; 47
     c36:	91 e0       	ldi	r25, 0x01	; 1
     c38:	61 e0       	ldi	r22, 0x01	; 1
     c3a:	ae 01       	movw	r20, r28
     c3c:	4b 5f       	subi	r20, 0xFB	; 251
     c3e:	5f 4f       	sbci	r21, 0xFF	; 255
     c40:	0e 94 34 03 	call	0x668	; 0x668 <BatchBuffer_put>
     c44:	8f e2       	ldi	r24, 0x2F	; 47
     c46:	91 e0       	ldi	r25, 0x01	; 1
     c48:	61 e0       	ldi	r22, 0x01	; 1
     c4a:	ae 01       	movw	r20, r28
     c4c:	4a 5f       	subi	r20, 0xFA	; 250
     c4e:	5f 4f       	sbci	r21, 0xFF	; 255
     c50:	0e 94 34 03 	call	0x668	; 0x668 <BatchBuffer_put>
     c54:	8f e2       	ldi	r24, 0x2F	; 47
     c56:	91 e0       	ldi	r25, 0x01	; 1
     c58:	61 e0       	ldi	r22, 0x01	; 1
     c5a:	ae 01       	movw	r20, r28
     c5c:	49 5f       	subi	r20, 0xF9	; 249
     c5e:	5f 4f       	sbci	r21, 0xFF	; 255
     c60:	0e 94 34 03 	call	0x668	; 0x668 <BatchBuffer_put>
     c64:	8f e2       	ldi	r24, 0x2F	; 47
     c66:	91 e0       	ldi	r25, 0x01	; 1
     c68:	61 e0       	ldi	r22, 0x01	; 1
     c6a:	ae 01       	movw	r20, r28
     c6c:	48 5f       	subi	r20, 0xF8	; 248
     c6e:	5f 4f       	sbci	r21, 0xFF	; 255
     c70:	0e 94 34 03 	call	0x668	; 0x668 <BatchBuffer_put>
     c74:	8f e2       	ldi	r24, 0x2F	; 47
     c76:	91 e0       	ldi	r25, 0x01	; 1
     c78:	61 e0       	ldi	r22, 0x01	; 1
     c7a:	ae 01       	movw	r20, r28
     c7c:	4f 5f       	subi	r20, 0xFF	; 255
     c7e:	5f 4f       	sbci	r21, 0xFF	; 255
     c80:	0e 94 34 03 	call	0x668	; 0x668 <BatchBuffer_put>
     c84:	8c 81       	ldd	r24, Y+4	; 0x04
     c86:	80 93 90 01 	sts	0x0190, r24
     c8a:	8a 81       	ldd	r24, Y+2	; 0x02
     c8c:	80 93 91 01 	sts	0x0191, r24
     c90:	80 ef       	ldi	r24, 0xF0	; 240
     c92:	0e 94 c5 0b 	call	0x178a	; 0x178a <UART1_putchar>
     c96:	80 91 9a 00 	lds	r24, 0x009A
     c9a:	80 64       	ori	r24, 0x40	; 64
     c9c:	80 93 9a 00 	sts	0x009A, r24
     ca0:	80 91 9a 00 	lds	r24, 0x009A
     ca4:	86 fd       	sbrc	r24, 6
     ca6:	fc cf       	rjmp	.-8      	; 0xca0 <ASA_RS485_fpt+0xe4>
     ca8:	80 91 62 00 	lds	r24, 0x0062
     cac:	8f 7e       	andi	r24, 0xEF	; 239
     cae:	80 93 62 00 	sts	0x0062, r24
     cb2:	10 92 b7 01 	sts	0x01B7, r1
     cb6:	80 91 9a 00 	lds	r24, 0x009A
     cba:	80 68       	ori	r24, 0x80	; 128
     cbc:	80 93 9a 00 	sts	0x009A, r24
     cc0:	81 e0       	ldi	r24, 0x01	; 1
     cc2:	80 93 bb 01 	sts	0x01BB, r24
     cc6:	80 91 56 01 	lds	r24, 0x0156
     cca:	81 30       	cpi	r24, 0x01	; 1
     ccc:	21 f0       	breq	.+8      	; 0xcd6 <ASA_RS485_fpt+0x11a>
     cce:	80 91 b8 01 	lds	r24, 0x01B8
     cd2:	82 30       	cpi	r24, 0x02	; 2
     cd4:	c1 f7       	brne	.-16     	; 0xcc6 <ASA_RS485_fpt+0x10a>
     cd6:	10 92 bb 01 	sts	0x01BB, r1
     cda:	80 91 56 01 	lds	r24, 0x0156
     cde:	81 30       	cpi	r24, 0x01	; 1
     ce0:	11 f0       	breq	.+4      	; 0xce6 <ASA_RS485_fpt+0x12a>
     ce2:	81 e0       	ldi	r24, 0x01	; 1
     ce4:	0b c0       	rjmp	.+22     	; 0xcfc <ASA_RS485_fpt+0x140>
     ce6:	83 e5       	ldi	r24, 0x53	; 83
     ce8:	91 e0       	ldi	r25, 0x01	; 1
     cea:	61 e0       	ldi	r22, 0x01	; 1
     cec:	ae 01       	movw	r20, r28
     cee:	4d 5f       	subi	r20, 0xFD	; 253
     cf0:	5f 4f       	sbci	r21, 0xFF	; 255
     cf2:	0e 94 79 03 	call	0x6f2	; 0x6f2 <BatchBuffer_get>
     cf6:	8b 81       	ldd	r24, Y+3	; 0x03
     cf8:	88 0f       	add	r24, r24
     cfa:	88 0f       	add	r24, r24
     cfc:	28 96       	adiw	r28, 0x08	; 8
     cfe:	0f b6       	in	r0, 0x3f	; 63
     d00:	f8 94       	cli
     d02:	de bf       	out	0x3e, r29	; 62
     d04:	0f be       	out	0x3f, r0	; 63
     d06:	cd bf       	out	0x3d, r28	; 61
     d08:	cf 91       	pop	r28
     d0a:	df 91       	pop	r29
     d0c:	0f 91       	pop	r16
     d0e:	ef 90       	pop	r14
     d10:	08 95       	ret

00000d12 <ASA_RS485_get>:
     d12:	cf 92       	push	r12
     d14:	df 92       	push	r13
     d16:	ef 92       	push	r14
     d18:	ff 92       	push	r15
     d1a:	0f 93       	push	r16
     d1c:	1f 93       	push	r17
     d1e:	df 93       	push	r29
     d20:	cf 93       	push	r28
     d22:	cd b7       	in	r28, 0x3d	; 61
     d24:	de b7       	in	r29, 0x3e	; 62
     d26:	27 97       	sbiw	r28, 0x07	; 7
     d28:	0f b6       	in	r0, 0x3f	; 63
     d2a:	f8 94       	cli
     d2c:	de bf       	out	0x3e, r29	; 62
     d2e:	0f be       	out	0x3f, r0	; 63
     d30:	cd bf       	out	0x3d, r28	; 61
     d32:	6d 83       	std	Y+5, r22	; 0x05
     d34:	4e 83       	std	Y+6, r20	; 0x06
     d36:	2f 83       	std	Y+7, r18	; 0x07
     d38:	68 01       	movw	r12, r16
     d3a:	19 82       	std	Y+1, r1	; 0x01
     d3c:	92 e0       	ldi	r25, 0x02	; 2
     d3e:	9a 83       	std	Y+2, r25	; 0x02
     d40:	0e 94 b7 0b 	call	0x176e	; 0x176e <ASA_ID_set>
     d44:	80 91 61 00 	lds	r24, 0x0061
     d48:	80 61       	ori	r24, 0x10	; 16
     d4a:	80 93 61 00 	sts	0x0061, r24
     d4e:	80 91 62 00 	lds	r24, 0x0062
     d52:	80 61       	ori	r24, 0x10	; 16
     d54:	80 93 62 00 	sts	0x0062, r24
     d58:	8a 81       	ldd	r24, Y+2	; 0x02
     d5a:	99 81       	ldd	r25, Y+1	; 0x01
     d5c:	89 0f       	add	r24, r25
     d5e:	9e 81       	ldd	r25, Y+6	; 0x06
     d60:	89 0f       	add	r24, r25
     d62:	9f 81       	ldd	r25, Y+7	; 0x07
     d64:	89 0f       	add	r24, r25
     d66:	89 83       	std	Y+1, r24	; 0x01
     d68:	8f e2       	ldi	r24, 0x2F	; 47
     d6a:	91 e0       	ldi	r25, 0x01	; 1
     d6c:	61 e0       	ldi	r22, 0x01	; 1
     d6e:	ae 01       	movw	r20, r28
     d70:	4b 5f       	subi	r20, 0xFB	; 251
     d72:	5f 4f       	sbci	r21, 0xFF	; 255
     d74:	0e 94 34 03 	call	0x668	; 0x668 <BatchBuffer_put>
     d78:	8f e2       	ldi	r24, 0x2F	; 47
     d7a:	91 e0       	ldi	r25, 0x01	; 1
     d7c:	61 e0       	ldi	r22, 0x01	; 1
     d7e:	ae 01       	movw	r20, r28
     d80:	4e 5f       	subi	r20, 0xFE	; 254
     d82:	5f 4f       	sbci	r21, 0xFF	; 255
     d84:	0e 94 34 03 	call	0x668	; 0x668 <BatchBuffer_put>
     d88:	8f e2       	ldi	r24, 0x2F	; 47
     d8a:	91 e0       	ldi	r25, 0x01	; 1
     d8c:	61 e0       	ldi	r22, 0x01	; 1
     d8e:	ae 01       	movw	r20, r28
     d90:	4a 5f       	subi	r20, 0xFA	; 250
     d92:	5f 4f       	sbci	r21, 0xFF	; 255
     d94:	0e 94 34 03 	call	0x668	; 0x668 <BatchBuffer_put>
     d98:	8f e2       	ldi	r24, 0x2F	; 47
     d9a:	91 e0       	ldi	r25, 0x01	; 1
     d9c:	61 e0       	ldi	r22, 0x01	; 1
     d9e:	ae 01       	movw	r20, r28
     da0:	49 5f       	subi	r20, 0xF9	; 249
     da2:	5f 4f       	sbci	r21, 0xFF	; 255
     da4:	0e 94 34 03 	call	0x668	; 0x668 <BatchBuffer_put>
     da8:	8f e2       	ldi	r24, 0x2F	; 47
     daa:	91 e0       	ldi	r25, 0x01	; 1
     dac:	61 e0       	ldi	r22, 0x01	; 1
     dae:	ae 01       	movw	r20, r28
     db0:	4f 5f       	subi	r20, 0xFF	; 255
     db2:	5f 4f       	sbci	r21, 0xFF	; 255
     db4:	0e 94 34 03 	call	0x668	; 0x668 <BatchBuffer_put>
     db8:	8d 81       	ldd	r24, Y+5	; 0x05
     dba:	80 93 90 01 	sts	0x0190, r24
     dbe:	8a 81       	ldd	r24, Y+2	; 0x02
     dc0:	80 93 91 01 	sts	0x0191, r24
     dc4:	8f 81       	ldd	r24, Y+7	; 0x07
     dc6:	80 93 93 01 	sts	0x0193, r24
     dca:	80 ef       	ldi	r24, 0xF0	; 240
     dcc:	0e 94 c5 0b 	call	0x178a	; 0x178a <UART1_putchar>
     dd0:	80 91 9a 00 	lds	r24, 0x009A
     dd4:	80 64       	ori	r24, 0x40	; 64
     dd6:	80 93 9a 00 	sts	0x009A, r24
     dda:	80 91 9a 00 	lds	r24, 0x009A
     dde:	86 fd       	sbrc	r24, 6
     de0:	fc cf       	rjmp	.-8      	; 0xdda <ASA_RS485_get+0xc8>
     de2:	80 91 62 00 	lds	r24, 0x0062
     de6:	8f 7e       	andi	r24, 0xEF	; 239
     de8:	80 93 62 00 	sts	0x0062, r24
     dec:	10 92 b7 01 	sts	0x01B7, r1
     df0:	80 91 9a 00 	lds	r24, 0x009A
     df4:	80 68       	ori	r24, 0x80	; 128
     df6:	80 93 9a 00 	sts	0x009A, r24
     dfa:	81 e0       	ldi	r24, 0x01	; 1
     dfc:	80 93 bb 01 	sts	0x01BB, r24
     e00:	80 91 56 01 	lds	r24, 0x0156
     e04:	81 30       	cpi	r24, 0x01	; 1
     e06:	21 f0       	breq	.+8      	; 0xe10 <ASA_RS485_get+0xfe>
     e08:	80 91 b8 01 	lds	r24, 0x01B8
     e0c:	82 30       	cpi	r24, 0x02	; 2
     e0e:	c1 f7       	brne	.-16     	; 0xe00 <ASA_RS485_get+0xee>
     e10:	10 92 bb 01 	sts	0x01BB, r1
     e14:	80 91 56 01 	lds	r24, 0x0156
     e18:	81 30       	cpi	r24, 0x01	; 1
     e1a:	11 f0       	breq	.+4      	; 0xe20 <ASA_RS485_get+0x10e>
     e1c:	81 e0       	ldi	r24, 0x01	; 1
     e1e:	28 c0       	rjmp	.+80     	; 0xe70 <ASA_RS485_get+0x15e>
     e20:	83 e5       	ldi	r24, 0x53	; 83
     e22:	91 e0       	ldi	r25, 0x01	; 1
     e24:	61 e0       	ldi	r22, 0x01	; 1
     e26:	ae 01       	movw	r20, r28
     e28:	4d 5f       	subi	r20, 0xFD	; 253
     e2a:	5f 4f       	sbci	r21, 0xFF	; 255
     e2c:	0e 94 79 03 	call	0x6f2	; 0x6f2 <BatchBuffer_get>
     e30:	8b 81       	ldd	r24, Y+3	; 0x03
     e32:	88 23       	and	r24, r24
     e34:	d1 f4       	brne	.+52     	; 0xe6a <ASA_RS485_get+0x158>
     e36:	00 e0       	ldi	r16, 0x00	; 0
     e38:	10 e0       	ldi	r17, 0x00	; 0
     e3a:	84 e0       	ldi	r24, 0x04	; 4
     e3c:	e8 2e       	mov	r14, r24
     e3e:	f1 2c       	mov	r15, r1
     e40:	ec 0e       	add	r14, r28
     e42:	fd 1e       	adc	r15, r29
     e44:	0d c0       	rjmp	.+26     	; 0xe60 <ASA_RS485_get+0x14e>
     e46:	83 e5       	ldi	r24, 0x53	; 83
     e48:	91 e0       	ldi	r25, 0x01	; 1
     e4a:	61 e0       	ldi	r22, 0x01	; 1
     e4c:	a7 01       	movw	r20, r14
     e4e:	0e 94 79 03 	call	0x6f2	; 0x6f2 <BatchBuffer_get>
     e52:	f6 01       	movw	r30, r12
     e54:	e0 0f       	add	r30, r16
     e56:	f1 1f       	adc	r31, r17
     e58:	8c 81       	ldd	r24, Y+4	; 0x04
     e5a:	80 83       	st	Z, r24
     e5c:	0f 5f       	subi	r16, 0xFF	; 255
     e5e:	1f 4f       	sbci	r17, 0xFF	; 255
     e60:	8f 81       	ldd	r24, Y+7	; 0x07
     e62:	90 e0       	ldi	r25, 0x00	; 0
     e64:	08 17       	cp	r16, r24
     e66:	19 07       	cpc	r17, r25
     e68:	74 f3       	brlt	.-36     	; 0xe46 <ASA_RS485_get+0x134>
     e6a:	8b 81       	ldd	r24, Y+3	; 0x03
     e6c:	88 0f       	add	r24, r24
     e6e:	88 0f       	add	r24, r24
     e70:	27 96       	adiw	r28, 0x07	; 7
     e72:	0f b6       	in	r0, 0x3f	; 63
     e74:	f8 94       	cli
     e76:	de bf       	out	0x3e, r29	; 62
     e78:	0f be       	out	0x3f, r0	; 63
     e7a:	cd bf       	out	0x3d, r28	; 61
     e7c:	cf 91       	pop	r28
     e7e:	df 91       	pop	r29
     e80:	1f 91       	pop	r17
     e82:	0f 91       	pop	r16
     e84:	ff 90       	pop	r15
     e86:	ef 90       	pop	r14
     e88:	df 90       	pop	r13
     e8a:	cf 90       	pop	r12
     e8c:	08 95       	ret

00000e8e <ASA_RS485_put>:
     e8e:	0f 93       	push	r16
     e90:	1f 93       	push	r17
     e92:	df 93       	push	r29
     e94:	cf 93       	push	r28
     e96:	00 d0       	rcall	.+0      	; 0xe98 <ASA_RS485_put+0xa>
     e98:	00 d0       	rcall	.+0      	; 0xe9a <ASA_RS485_put+0xc>
     e9a:	00 d0       	rcall	.+0      	; 0xe9c <ASA_RS485_put+0xe>
     e9c:	cd b7       	in	r28, 0x3d	; 61
     e9e:	de b7       	in	r29, 0x3e	; 62
     ea0:	6c 83       	std	Y+4, r22	; 0x04
     ea2:	4d 83       	std	Y+5, r20	; 0x05
     ea4:	2e 83       	std	Y+6, r18	; 0x06
     ea6:	19 82       	std	Y+1, r1	; 0x01
     ea8:	91 e0       	ldi	r25, 0x01	; 1
     eaa:	9a 83       	std	Y+2, r25	; 0x02
     eac:	0e 94 b7 0b 	call	0x176e	; 0x176e <ASA_ID_set>
     eb0:	80 91 61 00 	lds	r24, 0x0061
     eb4:	80 61       	ori	r24, 0x10	; 16
     eb6:	80 93 61 00 	sts	0x0061, r24
     eba:	80 91 62 00 	lds	r24, 0x0062
     ebe:	80 61       	ori	r24, 0x10	; 16
     ec0:	80 93 62 00 	sts	0x0062, r24
     ec4:	8a 81       	ldd	r24, Y+2	; 0x02
     ec6:	99 81       	ldd	r25, Y+1	; 0x01
     ec8:	89 0f       	add	r24, r25
     eca:	9d 81       	ldd	r25, Y+5	; 0x05
     ecc:	89 0f       	add	r24, r25
     ece:	9e 81       	ldd	r25, Y+6	; 0x06
     ed0:	89 0f       	add	r24, r25
     ed2:	89 83       	std	Y+1, r24	; 0x01
     ed4:	f8 01       	movw	r30, r16
     ed6:	98 01       	movw	r18, r16
     ed8:	29 0f       	add	r18, r25
     eda:	31 1d       	adc	r19, r1
     edc:	04 c0       	rjmp	.+8      	; 0xee6 <ASA_RS485_put+0x58>
     ede:	89 81       	ldd	r24, Y+1	; 0x01
     ee0:	91 91       	ld	r25, Z+
     ee2:	89 0f       	add	r24, r25
     ee4:	89 83       	std	Y+1, r24	; 0x01
     ee6:	e2 17       	cp	r30, r18
     ee8:	f3 07       	cpc	r31, r19
     eea:	c9 f7       	brne	.-14     	; 0xede <ASA_RS485_put+0x50>
     eec:	8f e2       	ldi	r24, 0x2F	; 47
     eee:	91 e0       	ldi	r25, 0x01	; 1
     ef0:	61 e0       	ldi	r22, 0x01	; 1
     ef2:	ae 01       	movw	r20, r28
     ef4:	4c 5f       	subi	r20, 0xFC	; 252
     ef6:	5f 4f       	sbci	r21, 0xFF	; 255
     ef8:	0e 94 34 03 	call	0x668	; 0x668 <BatchBuffer_put>
     efc:	8f e2       	ldi	r24, 0x2F	; 47
     efe:	91 e0       	ldi	r25, 0x01	; 1
     f00:	61 e0       	ldi	r22, 0x01	; 1
     f02:	ae 01       	movw	r20, r28
     f04:	4e 5f       	subi	r20, 0xFE	; 254
     f06:	5f 4f       	sbci	r21, 0xFF	; 255
     f08:	0e 94 34 03 	call	0x668	; 0x668 <BatchBuffer_put>
     f0c:	8f e2       	ldi	r24, 0x2F	; 47
     f0e:	91 e0       	ldi	r25, 0x01	; 1
     f10:	61 e0       	ldi	r22, 0x01	; 1
     f12:	ae 01       	movw	r20, r28
     f14:	4b 5f       	subi	r20, 0xFB	; 251
     f16:	5f 4f       	sbci	r21, 0xFF	; 255
     f18:	0e 94 34 03 	call	0x668	; 0x668 <BatchBuffer_put>
     f1c:	8f e2       	ldi	r24, 0x2F	; 47
     f1e:	91 e0       	ldi	r25, 0x01	; 1
     f20:	61 e0       	ldi	r22, 0x01	; 1
     f22:	ae 01       	movw	r20, r28
     f24:	4a 5f       	subi	r20, 0xFA	; 250
     f26:	5f 4f       	sbci	r21, 0xFF	; 255
     f28:	0e 94 34 03 	call	0x668	; 0x668 <BatchBuffer_put>
     f2c:	8f e2       	ldi	r24, 0x2F	; 47
     f2e:	91 e0       	ldi	r25, 0x01	; 1
     f30:	6e 81       	ldd	r22, Y+6	; 0x06
     f32:	a8 01       	movw	r20, r16
     f34:	0e 94 34 03 	call	0x668	; 0x668 <BatchBuffer_put>
     f38:	8f e2       	ldi	r24, 0x2F	; 47
     f3a:	91 e0       	ldi	r25, 0x01	; 1
     f3c:	61 e0       	ldi	r22, 0x01	; 1
     f3e:	ae 01       	movw	r20, r28
     f40:	4f 5f       	subi	r20, 0xFF	; 255
     f42:	5f 4f       	sbci	r21, 0xFF	; 255
     f44:	0e 94 34 03 	call	0x668	; 0x668 <BatchBuffer_put>
     f48:	8c 81       	ldd	r24, Y+4	; 0x04
     f4a:	80 93 90 01 	sts	0x0190, r24
     f4e:	8a 81       	ldd	r24, Y+2	; 0x02
     f50:	80 93 91 01 	sts	0x0191, r24
     f54:	80 ef       	ldi	r24, 0xF0	; 240
     f56:	0e 94 c5 0b 	call	0x178a	; 0x178a <UART1_putchar>
     f5a:	80 91 9a 00 	lds	r24, 0x009A
     f5e:	80 64       	ori	r24, 0x40	; 64
     f60:	80 93 9a 00 	sts	0x009A, r24
     f64:	80 91 9a 00 	lds	r24, 0x009A
     f68:	86 fd       	sbrc	r24, 6
     f6a:	fc cf       	rjmp	.-8      	; 0xf64 <ASA_RS485_put+0xd6>
     f6c:	80 91 62 00 	lds	r24, 0x0062
     f70:	8f 7e       	andi	r24, 0xEF	; 239
     f72:	80 93 62 00 	sts	0x0062, r24
     f76:	10 92 b7 01 	sts	0x01B7, r1
     f7a:	80 91 9a 00 	lds	r24, 0x009A
     f7e:	80 68       	ori	r24, 0x80	; 128
     f80:	80 93 9a 00 	sts	0x009A, r24
     f84:	81 e0       	ldi	r24, 0x01	; 1
     f86:	80 93 bb 01 	sts	0x01BB, r24
     f8a:	80 91 56 01 	lds	r24, 0x0156
     f8e:	81 30       	cpi	r24, 0x01	; 1
     f90:	21 f0       	breq	.+8      	; 0xf9a <ASA_RS485_put+0x10c>
     f92:	80 91 b8 01 	lds	r24, 0x01B8
     f96:	82 30       	cpi	r24, 0x02	; 2
     f98:	c1 f7       	brne	.-16     	; 0xf8a <ASA_RS485_put+0xfc>
     f9a:	10 92 bb 01 	sts	0x01BB, r1
     f9e:	80 91 56 01 	lds	r24, 0x0156
     fa2:	81 30       	cpi	r24, 0x01	; 1
     fa4:	11 f0       	breq	.+4      	; 0xfaa <ASA_RS485_put+0x11c>
     fa6:	81 e0       	ldi	r24, 0x01	; 1
     fa8:	0b c0       	rjmp	.+22     	; 0xfc0 <ASA_RS485_put+0x132>
     faa:	83 e5       	ldi	r24, 0x53	; 83
     fac:	91 e0       	ldi	r25, 0x01	; 1
     fae:	61 e0       	ldi	r22, 0x01	; 1
     fb0:	ae 01       	movw	r20, r28
     fb2:	4d 5f       	subi	r20, 0xFD	; 253
     fb4:	5f 4f       	sbci	r21, 0xFF	; 255
     fb6:	0e 94 79 03 	call	0x6f2	; 0x6f2 <BatchBuffer_get>
     fba:	8b 81       	ldd	r24, Y+3	; 0x03
     fbc:	88 0f       	add	r24, r24
     fbe:	88 0f       	add	r24, r24
     fc0:	26 96       	adiw	r28, 0x06	; 6
     fc2:	0f b6       	in	r0, 0x3f	; 63
     fc4:	f8 94       	cli
     fc6:	de bf       	out	0x3e, r29	; 62
     fc8:	0f be       	out	0x3f, r0	; 63
     fca:	cd bf       	out	0x3d, r28	; 61
     fcc:	cf 91       	pop	r28
     fce:	df 91       	pop	r29
     fd0:	1f 91       	pop	r17
     fd2:	0f 91       	pop	r16
     fd4:	08 95       	ret

00000fd6 <ASA_RS485_set>:
     fd6:	ef 92       	push	r14
     fd8:	0f 93       	push	r16
     fda:	df 93       	push	r29
     fdc:	cf 93       	push	r28
     fde:	cd b7       	in	r28, 0x3d	; 61
     fe0:	de b7       	in	r29, 0x3e	; 62
     fe2:	28 97       	sbiw	r28, 0x08	; 8
     fe4:	0f b6       	in	r0, 0x3f	; 63
     fe6:	f8 94       	cli
     fe8:	de bf       	out	0x3e, r29	; 62
     fea:	0f be       	out	0x3f, r0	; 63
     fec:	cd bf       	out	0x3d, r28	; 61
     fee:	6c 83       	std	Y+4, r22	; 0x04
     ff0:	4d 83       	std	Y+5, r20	; 0x05
     ff2:	2e 83       	std	Y+6, r18	; 0x06
     ff4:	0f 83       	std	Y+7, r16	; 0x07
     ff6:	e8 86       	std	Y+8, r14	; 0x08
     ff8:	19 82       	std	Y+1, r1	; 0x01
     ffa:	1a 82       	std	Y+2, r1	; 0x02
     ffc:	0e 94 b7 0b 	call	0x176e	; 0x176e <ASA_ID_set>
    1000:	80 91 61 00 	lds	r24, 0x0061
    1004:	80 61       	ori	r24, 0x10	; 16
    1006:	80 93 61 00 	sts	0x0061, r24
    100a:	80 91 62 00 	lds	r24, 0x0062
    100e:	80 61       	ori	r24, 0x10	; 16
    1010:	80 93 62 00 	sts	0x0062, r24
    1014:	8a 81       	ldd	r24, Y+2	; 0x02
    1016:	99 81       	ldd	r25, Y+1	; 0x01
    1018:	89 0f       	add	r24, r25
    101a:	9d 81       	ldd	r25, Y+5	; 0x05
    101c:	89 0f       	add	r24, r25
    101e:	9e 81       	ldd	r25, Y+6	; 0x06
    1020:	89 0f       	add	r24, r25
    1022:	9f 81       	ldd	r25, Y+7	; 0x07
    1024:	89 0f       	add	r24, r25
    1026:	98 85       	ldd	r25, Y+8	; 0x08
    1028:	89 0f       	add	r24, r25
    102a:	89 83       	std	Y+1, r24	; 0x01
    102c:	8f e2       	ldi	r24, 0x2F	; 47
    102e:	91 e0       	ldi	r25, 0x01	; 1
    1030:	61 e0       	ldi	r22, 0x01	; 1
    1032:	ae 01       	movw	r20, r28
    1034:	4c 5f       	subi	r20, 0xFC	; 252
    1036:	5f 4f       	sbci	r21, 0xFF	; 255
    1038:	0e 94 34 03 	call	0x668	; 0x668 <BatchBuffer_put>
    103c:	8f e2       	ldi	r24, 0x2F	; 47
    103e:	91 e0       	ldi	r25, 0x01	; 1
    1040:	61 e0       	ldi	r22, 0x01	; 1
    1042:	ae 01       	movw	r20, r28
    1044:	4e 5f       	subi	r20, 0xFE	; 254
    1046:	5f 4f       	sbci	r21, 0xFF	; 255
    1048:	0e 94 34 03 	call	0x668	; 0x668 <BatchBuffer_put>
    104c:	8f e2       	ldi	r24, 0x2F	; 47
    104e:	91 e0       	ldi	r25, 0x01	; 1
    1050:	61 e0       	ldi	r22, 0x01	; 1
    1052:	ae 01       	movw	r20, r28
    1054:	4b 5f       	subi	r20, 0xFB	; 251
    1056:	5f 4f       	sbci	r21, 0xFF	; 255
    1058:	0e 94 34 03 	call	0x668	; 0x668 <BatchBuffer_put>
    105c:	8f e2       	ldi	r24, 0x2F	; 47
    105e:	91 e0       	ldi	r25, 0x01	; 1
    1060:	61 e0       	ldi	r22, 0x01	; 1
    1062:	ae 01       	movw	r20, r28
    1064:	4a 5f       	subi	r20, 0xFA	; 250
    1066:	5f 4f       	sbci	r21, 0xFF	; 255
    1068:	0e 94 34 03 	call	0x668	; 0x668 <BatchBuffer_put>
    106c:	8f e2       	ldi	r24, 0x2F	; 47
    106e:	91 e0       	ldi	r25, 0x01	; 1
    1070:	61 e0       	ldi	r22, 0x01	; 1
    1072:	ae 01       	movw	r20, r28
    1074:	49 5f       	subi	r20, 0xF9	; 249
    1076:	5f 4f       	sbci	r21, 0xFF	; 255
    1078:	0e 94 34 03 	call	0x668	; 0x668 <BatchBuffer_put>
    107c:	8f e2       	ldi	r24, 0x2F	; 47
    107e:	91 e0       	ldi	r25, 0x01	; 1
    1080:	61 e0       	ldi	r22, 0x01	; 1
    1082:	ae 01       	movw	r20, r28
    1084:	48 5f       	subi	r20, 0xF8	; 248
    1086:	5f 4f       	sbci	r21, 0xFF	; 255
    1088:	0e 94 34 03 	call	0x668	; 0x668 <BatchBuffer_put>
    108c:	8f e2       	ldi	r24, 0x2F	; 47
    108e:	91 e0       	ldi	r25, 0x01	; 1
    1090:	61 e0       	ldi	r22, 0x01	; 1
    1092:	ae 01       	movw	r20, r28
    1094:	4f 5f       	subi	r20, 0xFF	; 255
    1096:	5f 4f       	sbci	r21, 0xFF	; 255
    1098:	0e 94 34 03 	call	0x668	; 0x668 <BatchBuffer_put>
    109c:	8c 81       	ldd	r24, Y+4	; 0x04
    109e:	80 93 90 01 	sts	0x0190, r24
    10a2:	8a 81       	ldd	r24, Y+2	; 0x02
    10a4:	80 93 91 01 	sts	0x0191, r24
    10a8:	80 ef       	ldi	r24, 0xF0	; 240
    10aa:	0e 94 c5 0b 	call	0x178a	; 0x178a <UART1_putchar>
    10ae:	80 91 9a 00 	lds	r24, 0x009A
    10b2:	80 64       	ori	r24, 0x40	; 64
    10b4:	80 93 9a 00 	sts	0x009A, r24
    10b8:	80 91 9a 00 	lds	r24, 0x009A
    10bc:	86 fd       	sbrc	r24, 6
    10be:	fc cf       	rjmp	.-8      	; 0x10b8 <ASA_RS485_set+0xe2>
    10c0:	80 91 62 00 	lds	r24, 0x0062
    10c4:	8f 7e       	andi	r24, 0xEF	; 239
    10c6:	80 93 62 00 	sts	0x0062, r24
    10ca:	10 92 b7 01 	sts	0x01B7, r1
    10ce:	80 91 9a 00 	lds	r24, 0x009A
    10d2:	80 68       	ori	r24, 0x80	; 128
    10d4:	80 93 9a 00 	sts	0x009A, r24
    10d8:	81 e0       	ldi	r24, 0x01	; 1
    10da:	80 93 bb 01 	sts	0x01BB, r24
    10de:	80 91 56 01 	lds	r24, 0x0156
    10e2:	81 30       	cpi	r24, 0x01	; 1
    10e4:	21 f0       	breq	.+8      	; 0x10ee <ASA_RS485_set+0x118>
    10e6:	80 91 b8 01 	lds	r24, 0x01B8
    10ea:	82 30       	cpi	r24, 0x02	; 2
    10ec:	c1 f7       	brne	.-16     	; 0x10de <ASA_RS485_set+0x108>
    10ee:	10 92 bb 01 	sts	0x01BB, r1
    10f2:	80 91 56 01 	lds	r24, 0x0156
    10f6:	81 30       	cpi	r24, 0x01	; 1
    10f8:	11 f0       	breq	.+4      	; 0x10fe <ASA_RS485_set+0x128>
    10fa:	81 e0       	ldi	r24, 0x01	; 1
    10fc:	0b c0       	rjmp	.+22     	; 0x1114 <__stack+0x15>
    10fe:	83 e5       	ldi	r24, 0x53	; 83
    1100:	91 e0       	ldi	r25, 0x01	; 1
    1102:	61 e0       	ldi	r22, 0x01	; 1
    1104:	ae 01       	movw	r20, r28
    1106:	4d 5f       	subi	r20, 0xFD	; 253
    1108:	5f 4f       	sbci	r21, 0xFF	; 255
    110a:	0e 94 79 03 	call	0x6f2	; 0x6f2 <BatchBuffer_get>
    110e:	8b 81       	ldd	r24, Y+3	; 0x03
    1110:	88 0f       	add	r24, r24
    1112:	88 0f       	add	r24, r24
    1114:	28 96       	adiw	r28, 0x08	; 8
    1116:	0f b6       	in	r0, 0x3f	; 63
    1118:	f8 94       	cli
    111a:	de bf       	out	0x3e, r29	; 62
    111c:	0f be       	out	0x3f, r0	; 63
    111e:	cd bf       	out	0x3d, r28	; 61
    1120:	cf 91       	pop	r28
    1122:	df 91       	pop	r29
    1124:	0f 91       	pop	r16
    1126:	ef 90       	pop	r14
    1128:	08 95       	ret

0000112a <ASA_UART_fgt>:
    112a:	ef 92       	push	r14
    112c:	ff 92       	push	r15
    112e:	0f 93       	push	r16
    1130:	df 93       	push	r29
    1132:	cf 93       	push	r28
    1134:	cd b7       	in	r28, 0x3d	; 61
    1136:	de b7       	in	r29, 0x3e	; 62
    1138:	28 97       	sbiw	r28, 0x08	; 8
    113a:	0f b6       	in	r0, 0x3f	; 63
    113c:	f8 94       	cli
    113e:	de bf       	out	0x3e, r29	; 62
    1140:	0f be       	out	0x3f, r0	; 63
    1142:	cd bf       	out	0x3d, r28	; 61
    1144:	6d 83       	std	Y+5, r22	; 0x05
    1146:	4e 83       	std	Y+6, r20	; 0x06
    1148:	2f 83       	std	Y+7, r18	; 0x07
    114a:	08 87       	std	Y+8, r16	; 0x08
    114c:	19 82       	std	Y+1, r1	; 0x01
    114e:	94 e0       	ldi	r25, 0x04	; 4
    1150:	9a 83       	std	Y+2, r25	; 0x02
    1152:	0e 94 b7 0b 	call	0x176e	; 0x176e <ASA_ID_set>
    1156:	8a 81       	ldd	r24, Y+2	; 0x02
    1158:	99 81       	ldd	r25, Y+1	; 0x01
    115a:	89 0f       	add	r24, r25
    115c:	9e 81       	ldd	r25, Y+6	; 0x06
    115e:	89 0f       	add	r24, r25
    1160:	9f 81       	ldd	r25, Y+7	; 0x07
    1162:	89 0f       	add	r24, r25
    1164:	98 85       	ldd	r25, Y+8	; 0x08
    1166:	89 0f       	add	r24, r25
    1168:	89 83       	std	Y+1, r24	; 0x01
    116a:	8f e2       	ldi	r24, 0x2F	; 47
    116c:	91 e0       	ldi	r25, 0x01	; 1
    116e:	61 e0       	ldi	r22, 0x01	; 1
    1170:	ae 01       	movw	r20, r28
    1172:	4b 5f       	subi	r20, 0xFB	; 251
    1174:	5f 4f       	sbci	r21, 0xFF	; 255
    1176:	0e 94 34 03 	call	0x668	; 0x668 <BatchBuffer_put>
    117a:	8f e2       	ldi	r24, 0x2F	; 47
    117c:	91 e0       	ldi	r25, 0x01	; 1
    117e:	61 e0       	ldi	r22, 0x01	; 1
    1180:	ae 01       	movw	r20, r28
    1182:	4e 5f       	subi	r20, 0xFE	; 254
    1184:	5f 4f       	sbci	r21, 0xFF	; 255
    1186:	0e 94 34 03 	call	0x668	; 0x668 <BatchBuffer_put>
    118a:	8f e2       	ldi	r24, 0x2F	; 47
    118c:	91 e0       	ldi	r25, 0x01	; 1
    118e:	61 e0       	ldi	r22, 0x01	; 1
    1190:	ae 01       	movw	r20, r28
    1192:	4a 5f       	subi	r20, 0xFA	; 250
    1194:	5f 4f       	sbci	r21, 0xFF	; 255
    1196:	0e 94 34 03 	call	0x668	; 0x668 <BatchBuffer_put>
    119a:	8f e2       	ldi	r24, 0x2F	; 47
    119c:	91 e0       	ldi	r25, 0x01	; 1
    119e:	61 e0       	ldi	r22, 0x01	; 1
    11a0:	ae 01       	movw	r20, r28
    11a2:	49 5f       	subi	r20, 0xF9	; 249
    11a4:	5f 4f       	sbci	r21, 0xFF	; 255
    11a6:	0e 94 34 03 	call	0x668	; 0x668 <BatchBuffer_put>
    11aa:	8f e2       	ldi	r24, 0x2F	; 47
    11ac:	91 e0       	ldi	r25, 0x01	; 1
    11ae:	61 e0       	ldi	r22, 0x01	; 1
    11b0:	ae 01       	movw	r20, r28
    11b2:	48 5f       	subi	r20, 0xF8	; 248
    11b4:	5f 4f       	sbci	r21, 0xFF	; 255
    11b6:	0e 94 34 03 	call	0x668	; 0x668 <BatchBuffer_put>
    11ba:	8f e2       	ldi	r24, 0x2F	; 47
    11bc:	91 e0       	ldi	r25, 0x01	; 1
    11be:	61 e0       	ldi	r22, 0x01	; 1
    11c0:	ae 01       	movw	r20, r28
    11c2:	4f 5f       	subi	r20, 0xFF	; 255
    11c4:	5f 4f       	sbci	r21, 0xFF	; 255
    11c6:	0e 94 34 03 	call	0x668	; 0x668 <BatchBuffer_put>
    11ca:	8d 81       	ldd	r24, Y+5	; 0x05
    11cc:	80 93 90 01 	sts	0x0190, r24
    11d0:	8a 81       	ldd	r24, Y+2	; 0x02
    11d2:	80 93 91 01 	sts	0x0191, r24
    11d6:	80 ef       	ldi	r24, 0xF0	; 240
    11d8:	0e 94 c5 0b 	call	0x178a	; 0x178a <UART1_putchar>
    11dc:	80 91 9a 00 	lds	r24, 0x009A
    11e0:	80 64       	ori	r24, 0x40	; 64
    11e2:	80 93 9a 00 	sts	0x009A, r24
    11e6:	80 91 9a 00 	lds	r24, 0x009A
    11ea:	86 fd       	sbrc	r24, 6
    11ec:	fc cf       	rjmp	.-8      	; 0x11e6 <ASA_UART_fgt+0xbc>
    11ee:	10 92 b7 01 	sts	0x01B7, r1
    11f2:	80 91 9a 00 	lds	r24, 0x009A
    11f6:	80 68       	ori	r24, 0x80	; 128
    11f8:	80 93 9a 00 	sts	0x009A, r24
    11fc:	81 e0       	ldi	r24, 0x01	; 1
    11fe:	80 93 bb 01 	sts	0x01BB, r24
    1202:	80 91 56 01 	lds	r24, 0x0156
    1206:	81 30       	cpi	r24, 0x01	; 1
    1208:	21 f0       	breq	.+8      	; 0x1212 <ASA_UART_fgt+0xe8>
    120a:	80 91 b8 01 	lds	r24, 0x01B8
    120e:	82 30       	cpi	r24, 0x02	; 2
    1210:	c1 f7       	brne	.-16     	; 0x1202 <ASA_UART_fgt+0xd8>
    1212:	10 92 bb 01 	sts	0x01BB, r1
    1216:	80 91 56 01 	lds	r24, 0x0156
    121a:	81 30       	cpi	r24, 0x01	; 1
    121c:	11 f0       	breq	.+4      	; 0x1222 <ASA_UART_fgt+0xf8>
    121e:	81 e0       	ldi	r24, 0x01	; 1
    1220:	19 c0       	rjmp	.+50     	; 0x1254 <ASA_UART_fgt+0x12a>
    1222:	83 e5       	ldi	r24, 0x53	; 83
    1224:	91 e0       	ldi	r25, 0x01	; 1
    1226:	61 e0       	ldi	r22, 0x01	; 1
    1228:	ae 01       	movw	r20, r28
    122a:	4d 5f       	subi	r20, 0xFD	; 253
    122c:	5f 4f       	sbci	r21, 0xFF	; 255
    122e:	0e 94 79 03 	call	0x6f2	; 0x6f2 <BatchBuffer_get>
    1232:	8b 81       	ldd	r24, Y+3	; 0x03
    1234:	88 23       	and	r24, r24
    1236:	59 f4       	brne	.+22     	; 0x124e <ASA_UART_fgt+0x124>
    1238:	83 e5       	ldi	r24, 0x53	; 83
    123a:	91 e0       	ldi	r25, 0x01	; 1
    123c:	61 e0       	ldi	r22, 0x01	; 1
    123e:	ae 01       	movw	r20, r28
    1240:	4c 5f       	subi	r20, 0xFC	; 252
    1242:	5f 4f       	sbci	r21, 0xFF	; 255
    1244:	0e 94 79 03 	call	0x6f2	; 0x6f2 <BatchBuffer_get>
    1248:	8c 81       	ldd	r24, Y+4	; 0x04
    124a:	f7 01       	movw	r30, r14
    124c:	80 83       	st	Z, r24
    124e:	8b 81       	ldd	r24, Y+3	; 0x03
    1250:	88 0f       	add	r24, r24
    1252:	88 0f       	add	r24, r24
    1254:	28 96       	adiw	r28, 0x08	; 8
    1256:	0f b6       	in	r0, 0x3f	; 63
    1258:	f8 94       	cli
    125a:	de bf       	out	0x3e, r29	; 62
    125c:	0f be       	out	0x3f, r0	; 63
    125e:	cd bf       	out	0x3d, r28	; 61
    1260:	cf 91       	pop	r28
    1262:	df 91       	pop	r29
    1264:	0f 91       	pop	r16
    1266:	ff 90       	pop	r15
    1268:	ef 90       	pop	r14
    126a:	08 95       	ret

0000126c <ASA_UART_fpt>:
    126c:	ef 92       	push	r14
    126e:	0f 93       	push	r16
    1270:	df 93       	push	r29
    1272:	cf 93       	push	r28
    1274:	cd b7       	in	r28, 0x3d	; 61
    1276:	de b7       	in	r29, 0x3e	; 62
    1278:	28 97       	sbiw	r28, 0x08	; 8
    127a:	0f b6       	in	r0, 0x3f	; 63
    127c:	f8 94       	cli
    127e:	de bf       	out	0x3e, r29	; 62
    1280:	0f be       	out	0x3f, r0	; 63
    1282:	cd bf       	out	0x3d, r28	; 61
    1284:	6c 83       	std	Y+4, r22	; 0x04
    1286:	4d 83       	std	Y+5, r20	; 0x05
    1288:	2e 83       	std	Y+6, r18	; 0x06
    128a:	0f 83       	std	Y+7, r16	; 0x07
    128c:	e8 86       	std	Y+8, r14	; 0x08
    128e:	19 82       	std	Y+1, r1	; 0x01
    1290:	93 e0       	ldi	r25, 0x03	; 3
    1292:	9a 83       	std	Y+2, r25	; 0x02
    1294:	0e 94 b7 0b 	call	0x176e	; 0x176e <ASA_ID_set>
    1298:	8a 81       	ldd	r24, Y+2	; 0x02
    129a:	99 81       	ldd	r25, Y+1	; 0x01
    129c:	89 0f       	add	r24, r25
    129e:	9d 81       	ldd	r25, Y+5	; 0x05
    12a0:	89 0f       	add	r24, r25
    12a2:	9e 81       	ldd	r25, Y+6	; 0x06
    12a4:	89 0f       	add	r24, r25
    12a6:	9f 81       	ldd	r25, Y+7	; 0x07
    12a8:	89 0f       	add	r24, r25
    12aa:	98 85       	ldd	r25, Y+8	; 0x08
    12ac:	89 0f       	add	r24, r25
    12ae:	89 83       	std	Y+1, r24	; 0x01
    12b0:	8f e2       	ldi	r24, 0x2F	; 47
    12b2:	91 e0       	ldi	r25, 0x01	; 1
    12b4:	61 e0       	ldi	r22, 0x01	; 1
    12b6:	ae 01       	movw	r20, r28
    12b8:	4c 5f       	subi	r20, 0xFC	; 252
    12ba:	5f 4f       	sbci	r21, 0xFF	; 255
    12bc:	0e 94 34 03 	call	0x668	; 0x668 <BatchBuffer_put>
    12c0:	8f e2       	ldi	r24, 0x2F	; 47
    12c2:	91 e0       	ldi	r25, 0x01	; 1
    12c4:	61 e0       	ldi	r22, 0x01	; 1
    12c6:	ae 01       	movw	r20, r28
    12c8:	4e 5f       	subi	r20, 0xFE	; 254
    12ca:	5f 4f       	sbci	r21, 0xFF	; 255
    12cc:	0e 94 34 03 	call	0x668	; 0x668 <BatchBuffer_put>
    12d0:	8f e2       	ldi	r24, 0x2F	; 47
    12d2:	91 e0       	ldi	r25, 0x01	; 1
    12d4:	61 e0       	ldi	r22, 0x01	; 1
    12d6:	ae 01       	movw	r20, r28
    12d8:	4b 5f       	subi	r20, 0xFB	; 251
    12da:	5f 4f       	sbci	r21, 0xFF	; 255
    12dc:	0e 94 34 03 	call	0x668	; 0x668 <BatchBuffer_put>
    12e0:	8f e2       	ldi	r24, 0x2F	; 47
    12e2:	91 e0       	ldi	r25, 0x01	; 1
    12e4:	61 e0       	ldi	r22, 0x01	; 1
    12e6:	ae 01       	movw	r20, r28
    12e8:	4a 5f       	subi	r20, 0xFA	; 250
    12ea:	5f 4f       	sbci	r21, 0xFF	; 255
    12ec:	0e 94 34 03 	call	0x668	; 0x668 <BatchBuffer_put>
    12f0:	8f e2       	ldi	r24, 0x2F	; 47
    12f2:	91 e0       	ldi	r25, 0x01	; 1
    12f4:	61 e0       	ldi	r22, 0x01	; 1
    12f6:	ae 01       	movw	r20, r28
    12f8:	49 5f       	subi	r20, 0xF9	; 249
    12fa:	5f 4f       	sbci	r21, 0xFF	; 255
    12fc:	0e 94 34 03 	call	0x668	; 0x668 <BatchBuffer_put>
    1300:	8f e2       	ldi	r24, 0x2F	; 47
    1302:	91 e0       	ldi	r25, 0x01	; 1
    1304:	61 e0       	ldi	r22, 0x01	; 1
    1306:	ae 01       	movw	r20, r28
    1308:	48 5f       	subi	r20, 0xF8	; 248
    130a:	5f 4f       	sbci	r21, 0xFF	; 255
    130c:	0e 94 34 03 	call	0x668	; 0x668 <BatchBuffer_put>
    1310:	8f e2       	ldi	r24, 0x2F	; 47
    1312:	91 e0       	ldi	r25, 0x01	; 1
    1314:	61 e0       	ldi	r22, 0x01	; 1
    1316:	ae 01       	movw	r20, r28
    1318:	4f 5f       	subi	r20, 0xFF	; 255
    131a:	5f 4f       	sbci	r21, 0xFF	; 255
    131c:	0e 94 34 03 	call	0x668	; 0x668 <BatchBuffer_put>
    1320:	8c 81       	ldd	r24, Y+4	; 0x04
    1322:	80 93 90 01 	sts	0x0190, r24
    1326:	8a 81       	ldd	r24, Y+2	; 0x02
    1328:	80 93 91 01 	sts	0x0191, r24
    132c:	80 ef       	ldi	r24, 0xF0	; 240
    132e:	0e 94 c5 0b 	call	0x178a	; 0x178a <UART1_putchar>
    1332:	80 91 9a 00 	lds	r24, 0x009A
    1336:	80 64       	ori	r24, 0x40	; 64
    1338:	80 93 9a 00 	sts	0x009A, r24
    133c:	80 91 9a 00 	lds	r24, 0x009A
    1340:	86 fd       	sbrc	r24, 6
    1342:	fc cf       	rjmp	.-8      	; 0x133c <ASA_UART_fpt+0xd0>
    1344:	10 92 b7 01 	sts	0x01B7, r1
    1348:	80 91 9a 00 	lds	r24, 0x009A
    134c:	80 68       	ori	r24, 0x80	; 128
    134e:	80 93 9a 00 	sts	0x009A, r24
    1352:	81 e0       	ldi	r24, 0x01	; 1
    1354:	80 93 bb 01 	sts	0x01BB, r24
    1358:	80 91 56 01 	lds	r24, 0x0156
    135c:	81 30       	cpi	r24, 0x01	; 1
    135e:	21 f0       	breq	.+8      	; 0x1368 <ASA_UART_fpt+0xfc>
    1360:	80 91 b8 01 	lds	r24, 0x01B8
    1364:	82 30       	cpi	r24, 0x02	; 2
    1366:	c1 f7       	brne	.-16     	; 0x1358 <ASA_UART_fpt+0xec>
    1368:	10 92 bb 01 	sts	0x01BB, r1
    136c:	80 91 56 01 	lds	r24, 0x0156
    1370:	81 30       	cpi	r24, 0x01	; 1
    1372:	11 f0       	breq	.+4      	; 0x1378 <ASA_UART_fpt+0x10c>
    1374:	81 e0       	ldi	r24, 0x01	; 1
    1376:	0b c0       	rjmp	.+22     	; 0x138e <ASA_UART_fpt+0x122>
    1378:	83 e5       	ldi	r24, 0x53	; 83
    137a:	91 e0       	ldi	r25, 0x01	; 1
    137c:	61 e0       	ldi	r22, 0x01	; 1
    137e:	ae 01       	movw	r20, r28
    1380:	4d 5f       	subi	r20, 0xFD	; 253
    1382:	5f 4f       	sbci	r21, 0xFF	; 255
    1384:	0e 94 79 03 	call	0x6f2	; 0x6f2 <BatchBuffer_get>
    1388:	8b 81       	ldd	r24, Y+3	; 0x03
    138a:	88 0f       	add	r24, r24
    138c:	88 0f       	add	r24, r24
    138e:	28 96       	adiw	r28, 0x08	; 8
    1390:	0f b6       	in	r0, 0x3f	; 63
    1392:	f8 94       	cli
    1394:	de bf       	out	0x3e, r29	; 62
    1396:	0f be       	out	0x3f, r0	; 63
    1398:	cd bf       	out	0x3d, r28	; 61
    139a:	cf 91       	pop	r28
    139c:	df 91       	pop	r29
    139e:	0f 91       	pop	r16
    13a0:	ef 90       	pop	r14
    13a2:	08 95       	ret

000013a4 <ASA_UART_get>:
    13a4:	cf 92       	push	r12
    13a6:	df 92       	push	r13
    13a8:	ef 92       	push	r14
    13aa:	ff 92       	push	r15
    13ac:	0f 93       	push	r16
    13ae:	1f 93       	push	r17
    13b0:	df 93       	push	r29
    13b2:	cf 93       	push	r28
    13b4:	cd b7       	in	r28, 0x3d	; 61
    13b6:	de b7       	in	r29, 0x3e	; 62
    13b8:	27 97       	sbiw	r28, 0x07	; 7
    13ba:	0f b6       	in	r0, 0x3f	; 63
    13bc:	f8 94       	cli
    13be:	de bf       	out	0x3e, r29	; 62
    13c0:	0f be       	out	0x3f, r0	; 63
    13c2:	cd bf       	out	0x3d, r28	; 61
    13c4:	6d 83       	std	Y+5, r22	; 0x05
    13c6:	4e 83       	std	Y+6, r20	; 0x06
    13c8:	2f 83       	std	Y+7, r18	; 0x07
    13ca:	68 01       	movw	r12, r16
    13cc:	19 82       	std	Y+1, r1	; 0x01
    13ce:	92 e0       	ldi	r25, 0x02	; 2
    13d0:	9a 83       	std	Y+2, r25	; 0x02
    13d2:	0e 94 b7 0b 	call	0x176e	; 0x176e <ASA_ID_set>
    13d6:	8a 81       	ldd	r24, Y+2	; 0x02
    13d8:	99 81       	ldd	r25, Y+1	; 0x01
    13da:	89 0f       	add	r24, r25
    13dc:	9e 81       	ldd	r25, Y+6	; 0x06
    13de:	89 0f       	add	r24, r25
    13e0:	9f 81       	ldd	r25, Y+7	; 0x07
    13e2:	89 0f       	add	r24, r25
    13e4:	89 83       	std	Y+1, r24	; 0x01
    13e6:	8f e2       	ldi	r24, 0x2F	; 47
    13e8:	91 e0       	ldi	r25, 0x01	; 1
    13ea:	61 e0       	ldi	r22, 0x01	; 1
    13ec:	ae 01       	movw	r20, r28
    13ee:	4b 5f       	subi	r20, 0xFB	; 251
    13f0:	5f 4f       	sbci	r21, 0xFF	; 255
    13f2:	0e 94 34 03 	call	0x668	; 0x668 <BatchBuffer_put>
    13f6:	8f e2       	ldi	r24, 0x2F	; 47
    13f8:	91 e0       	ldi	r25, 0x01	; 1
    13fa:	61 e0       	ldi	r22, 0x01	; 1
    13fc:	ae 01       	movw	r20, r28
    13fe:	4e 5f       	subi	r20, 0xFE	; 254
    1400:	5f 4f       	sbci	r21, 0xFF	; 255
    1402:	0e 94 34 03 	call	0x668	; 0x668 <BatchBuffer_put>
    1406:	8f e2       	ldi	r24, 0x2F	; 47
    1408:	91 e0       	ldi	r25, 0x01	; 1
    140a:	61 e0       	ldi	r22, 0x01	; 1
    140c:	ae 01       	movw	r20, r28
    140e:	4a 5f       	subi	r20, 0xFA	; 250
    1410:	5f 4f       	sbci	r21, 0xFF	; 255
    1412:	0e 94 34 03 	call	0x668	; 0x668 <BatchBuffer_put>
    1416:	8f e2       	ldi	r24, 0x2F	; 47
    1418:	91 e0       	ldi	r25, 0x01	; 1
    141a:	61 e0       	ldi	r22, 0x01	; 1
    141c:	ae 01       	movw	r20, r28
    141e:	49 5f       	subi	r20, 0xF9	; 249
    1420:	5f 4f       	sbci	r21, 0xFF	; 255
    1422:	0e 94 34 03 	call	0x668	; 0x668 <BatchBuffer_put>
    1426:	8f e2       	ldi	r24, 0x2F	; 47
    1428:	91 e0       	ldi	r25, 0x01	; 1
    142a:	61 e0       	ldi	r22, 0x01	; 1
    142c:	ae 01       	movw	r20, r28
    142e:	4f 5f       	subi	r20, 0xFF	; 255
    1430:	5f 4f       	sbci	r21, 0xFF	; 255
    1432:	0e 94 34 03 	call	0x668	; 0x668 <BatchBuffer_put>
    1436:	8d 81       	ldd	r24, Y+5	; 0x05
    1438:	80 93 90 01 	sts	0x0190, r24
    143c:	8a 81       	ldd	r24, Y+2	; 0x02
    143e:	80 93 91 01 	sts	0x0191, r24
    1442:	8f 81       	ldd	r24, Y+7	; 0x07
    1444:	80 93 93 01 	sts	0x0193, r24
    1448:	80 ef       	ldi	r24, 0xF0	; 240
    144a:	0e 94 c5 0b 	call	0x178a	; 0x178a <UART1_putchar>
    144e:	80 91 9a 00 	lds	r24, 0x009A
    1452:	80 64       	ori	r24, 0x40	; 64
    1454:	80 93 9a 00 	sts	0x009A, r24
    1458:	80 91 9a 00 	lds	r24, 0x009A
    145c:	86 fd       	sbrc	r24, 6
    145e:	fc cf       	rjmp	.-8      	; 0x1458 <ASA_UART_get+0xb4>
    1460:	10 92 b7 01 	sts	0x01B7, r1
    1464:	80 91 9a 00 	lds	r24, 0x009A
    1468:	80 68       	ori	r24, 0x80	; 128
    146a:	80 93 9a 00 	sts	0x009A, r24
    146e:	81 e0       	ldi	r24, 0x01	; 1
    1470:	80 93 bb 01 	sts	0x01BB, r24
    1474:	80 91 56 01 	lds	r24, 0x0156
    1478:	81 30       	cpi	r24, 0x01	; 1
    147a:	21 f0       	breq	.+8      	; 0x1484 <ASA_UART_get+0xe0>
    147c:	80 91 b8 01 	lds	r24, 0x01B8
    1480:	82 30       	cpi	r24, 0x02	; 2
    1482:	c1 f7       	brne	.-16     	; 0x1474 <ASA_UART_get+0xd0>
    1484:	10 92 bb 01 	sts	0x01BB, r1
    1488:	80 91 56 01 	lds	r24, 0x0156
    148c:	81 30       	cpi	r24, 0x01	; 1
    148e:	11 f0       	breq	.+4      	; 0x1494 <ASA_UART_get+0xf0>
    1490:	81 e0       	ldi	r24, 0x01	; 1
    1492:	28 c0       	rjmp	.+80     	; 0x14e4 <ASA_UART_get+0x140>
    1494:	83 e5       	ldi	r24, 0x53	; 83
    1496:	91 e0       	ldi	r25, 0x01	; 1
    1498:	61 e0       	ldi	r22, 0x01	; 1
    149a:	ae 01       	movw	r20, r28
    149c:	4d 5f       	subi	r20, 0xFD	; 253
    149e:	5f 4f       	sbci	r21, 0xFF	; 255
    14a0:	0e 94 79 03 	call	0x6f2	; 0x6f2 <BatchBuffer_get>
    14a4:	8b 81       	ldd	r24, Y+3	; 0x03
    14a6:	88 23       	and	r24, r24
    14a8:	d1 f4       	brne	.+52     	; 0x14de <ASA_UART_get+0x13a>
    14aa:	00 e0       	ldi	r16, 0x00	; 0
    14ac:	10 e0       	ldi	r17, 0x00	; 0
    14ae:	94 e0       	ldi	r25, 0x04	; 4
    14b0:	e9 2e       	mov	r14, r25
    14b2:	f1 2c       	mov	r15, r1
    14b4:	ec 0e       	add	r14, r28
    14b6:	fd 1e       	adc	r15, r29
    14b8:	0d c0       	rjmp	.+26     	; 0x14d4 <ASA_UART_get+0x130>
    14ba:	83 e5       	ldi	r24, 0x53	; 83
    14bc:	91 e0       	ldi	r25, 0x01	; 1
    14be:	61 e0       	ldi	r22, 0x01	; 1
    14c0:	a7 01       	movw	r20, r14
    14c2:	0e 94 79 03 	call	0x6f2	; 0x6f2 <BatchBuffer_get>
    14c6:	f6 01       	movw	r30, r12
    14c8:	e0 0f       	add	r30, r16
    14ca:	f1 1f       	adc	r31, r17
    14cc:	8c 81       	ldd	r24, Y+4	; 0x04
    14ce:	80 83       	st	Z, r24
    14d0:	0f 5f       	subi	r16, 0xFF	; 255
    14d2:	1f 4f       	sbci	r17, 0xFF	; 255
    14d4:	8f 81       	ldd	r24, Y+7	; 0x07
    14d6:	90 e0       	ldi	r25, 0x00	; 0
    14d8:	08 17       	cp	r16, r24
    14da:	19 07       	cpc	r17, r25
    14dc:	74 f3       	brlt	.-36     	; 0x14ba <ASA_UART_get+0x116>
    14de:	8b 81       	ldd	r24, Y+3	; 0x03
    14e0:	88 0f       	add	r24, r24
    14e2:	88 0f       	add	r24, r24
    14e4:	27 96       	adiw	r28, 0x07	; 7
    14e6:	0f b6       	in	r0, 0x3f	; 63
    14e8:	f8 94       	cli
    14ea:	de bf       	out	0x3e, r29	; 62
    14ec:	0f be       	out	0x3f, r0	; 63
    14ee:	cd bf       	out	0x3d, r28	; 61
    14f0:	cf 91       	pop	r28
    14f2:	df 91       	pop	r29
    14f4:	1f 91       	pop	r17
    14f6:	0f 91       	pop	r16
    14f8:	ff 90       	pop	r15
    14fa:	ef 90       	pop	r14
    14fc:	df 90       	pop	r13
    14fe:	cf 90       	pop	r12
    1500:	08 95       	ret

00001502 <ASA_UART_put>:
    1502:	0f 93       	push	r16
    1504:	1f 93       	push	r17
    1506:	df 93       	push	r29
    1508:	cf 93       	push	r28
    150a:	00 d0       	rcall	.+0      	; 0x150c <ASA_UART_put+0xa>
    150c:	00 d0       	rcall	.+0      	; 0x150e <ASA_UART_put+0xc>
    150e:	00 d0       	rcall	.+0      	; 0x1510 <ASA_UART_put+0xe>
    1510:	cd b7       	in	r28, 0x3d	; 61
    1512:	de b7       	in	r29, 0x3e	; 62
    1514:	6c 83       	std	Y+4, r22	; 0x04
    1516:	4d 83       	std	Y+5, r20	; 0x05
    1518:	2e 83       	std	Y+6, r18	; 0x06
    151a:	19 82       	std	Y+1, r1	; 0x01
    151c:	91 e0       	ldi	r25, 0x01	; 1
    151e:	9a 83       	std	Y+2, r25	; 0x02
    1520:	0e 94 b7 0b 	call	0x176e	; 0x176e <ASA_ID_set>
    1524:	8a 81       	ldd	r24, Y+2	; 0x02
    1526:	99 81       	ldd	r25, Y+1	; 0x01
    1528:	89 0f       	add	r24, r25
    152a:	9d 81       	ldd	r25, Y+5	; 0x05
    152c:	89 0f       	add	r24, r25
    152e:	9e 81       	ldd	r25, Y+6	; 0x06
    1530:	89 0f       	add	r24, r25
    1532:	89 83       	std	Y+1, r24	; 0x01
    1534:	f8 01       	movw	r30, r16
    1536:	98 01       	movw	r18, r16
    1538:	29 0f       	add	r18, r25
    153a:	31 1d       	adc	r19, r1
    153c:	04 c0       	rjmp	.+8      	; 0x1546 <ASA_UART_put+0x44>
    153e:	89 81       	ldd	r24, Y+1	; 0x01
    1540:	91 91       	ld	r25, Z+
    1542:	89 0f       	add	r24, r25
    1544:	89 83       	std	Y+1, r24	; 0x01
    1546:	e2 17       	cp	r30, r18
    1548:	f3 07       	cpc	r31, r19
    154a:	c9 f7       	brne	.-14     	; 0x153e <ASA_UART_put+0x3c>
    154c:	8f e2       	ldi	r24, 0x2F	; 47
    154e:	91 e0       	ldi	r25, 0x01	; 1
    1550:	61 e0       	ldi	r22, 0x01	; 1
    1552:	ae 01       	movw	r20, r28
    1554:	4c 5f       	subi	r20, 0xFC	; 252
    1556:	5f 4f       	sbci	r21, 0xFF	; 255
    1558:	0e 94 34 03 	call	0x668	; 0x668 <BatchBuffer_put>
    155c:	8f e2       	ldi	r24, 0x2F	; 47
    155e:	91 e0       	ldi	r25, 0x01	; 1
    1560:	61 e0       	ldi	r22, 0x01	; 1
    1562:	ae 01       	movw	r20, r28
    1564:	4e 5f       	subi	r20, 0xFE	; 254
    1566:	5f 4f       	sbci	r21, 0xFF	; 255
    1568:	0e 94 34 03 	call	0x668	; 0x668 <BatchBuffer_put>
    156c:	8f e2       	ldi	r24, 0x2F	; 47
    156e:	91 e0       	ldi	r25, 0x01	; 1
    1570:	61 e0       	ldi	r22, 0x01	; 1
    1572:	ae 01       	movw	r20, r28
    1574:	4b 5f       	subi	r20, 0xFB	; 251
    1576:	5f 4f       	sbci	r21, 0xFF	; 255
    1578:	0e 94 34 03 	call	0x668	; 0x668 <BatchBuffer_put>
    157c:	8f e2       	ldi	r24, 0x2F	; 47
    157e:	91 e0       	ldi	r25, 0x01	; 1
    1580:	61 e0       	ldi	r22, 0x01	; 1
    1582:	ae 01       	movw	r20, r28
    1584:	4a 5f       	subi	r20, 0xFA	; 250
    1586:	5f 4f       	sbci	r21, 0xFF	; 255
    1588:	0e 94 34 03 	call	0x668	; 0x668 <BatchBuffer_put>
    158c:	8f e2       	ldi	r24, 0x2F	; 47
    158e:	91 e0       	ldi	r25, 0x01	; 1
    1590:	6e 81       	ldd	r22, Y+6	; 0x06
    1592:	a8 01       	movw	r20, r16
    1594:	0e 94 34 03 	call	0x668	; 0x668 <BatchBuffer_put>
    1598:	8f e2       	ldi	r24, 0x2F	; 47
    159a:	91 e0       	ldi	r25, 0x01	; 1
    159c:	61 e0       	ldi	r22, 0x01	; 1
    159e:	ae 01       	movw	r20, r28
    15a0:	4f 5f       	subi	r20, 0xFF	; 255
    15a2:	5f 4f       	sbci	r21, 0xFF	; 255
    15a4:	0e 94 34 03 	call	0x668	; 0x668 <BatchBuffer_put>
    15a8:	8c 81       	ldd	r24, Y+4	; 0x04
    15aa:	80 93 90 01 	sts	0x0190, r24
    15ae:	8a 81       	ldd	r24, Y+2	; 0x02
    15b0:	80 93 91 01 	sts	0x0191, r24
    15b4:	80 ef       	ldi	r24, 0xF0	; 240
    15b6:	0e 94 c5 0b 	call	0x178a	; 0x178a <UART1_putchar>
    15ba:	80 91 9a 00 	lds	r24, 0x009A
    15be:	80 64       	ori	r24, 0x40	; 64
    15c0:	80 93 9a 00 	sts	0x009A, r24
    15c4:	80 91 9a 00 	lds	r24, 0x009A
    15c8:	86 fd       	sbrc	r24, 6
    15ca:	fc cf       	rjmp	.-8      	; 0x15c4 <ASA_UART_put+0xc2>
    15cc:	10 92 b7 01 	sts	0x01B7, r1
    15d0:	80 91 9a 00 	lds	r24, 0x009A
    15d4:	80 68       	ori	r24, 0x80	; 128
    15d6:	80 93 9a 00 	sts	0x009A, r24
    15da:	81 e0       	ldi	r24, 0x01	; 1
    15dc:	80 93 bb 01 	sts	0x01BB, r24
    15e0:	80 91 56 01 	lds	r24, 0x0156
    15e4:	81 30       	cpi	r24, 0x01	; 1
    15e6:	21 f0       	breq	.+8      	; 0x15f0 <ASA_UART_put+0xee>
    15e8:	80 91 b8 01 	lds	r24, 0x01B8
    15ec:	82 30       	cpi	r24, 0x02	; 2
    15ee:	c1 f7       	brne	.-16     	; 0x15e0 <ASA_UART_put+0xde>
    15f0:	10 92 bb 01 	sts	0x01BB, r1
    15f4:	80 91 56 01 	lds	r24, 0x0156
    15f8:	81 30       	cpi	r24, 0x01	; 1
    15fa:	11 f0       	breq	.+4      	; 0x1600 <ASA_UART_put+0xfe>
    15fc:	81 e0       	ldi	r24, 0x01	; 1
    15fe:	0b c0       	rjmp	.+22     	; 0x1616 <ASA_UART_put+0x114>
    1600:	83 e5       	ldi	r24, 0x53	; 83
    1602:	91 e0       	ldi	r25, 0x01	; 1
    1604:	61 e0       	ldi	r22, 0x01	; 1
    1606:	ae 01       	movw	r20, r28
    1608:	4d 5f       	subi	r20, 0xFD	; 253
    160a:	5f 4f       	sbci	r21, 0xFF	; 255
    160c:	0e 94 79 03 	call	0x6f2	; 0x6f2 <BatchBuffer_get>
    1610:	8b 81       	ldd	r24, Y+3	; 0x03
    1612:	88 0f       	add	r24, r24
    1614:	88 0f       	add	r24, r24
    1616:	26 96       	adiw	r28, 0x06	; 6
    1618:	0f b6       	in	r0, 0x3f	; 63
    161a:	f8 94       	cli
    161c:	de bf       	out	0x3e, r29	; 62
    161e:	0f be       	out	0x3f, r0	; 63
    1620:	cd bf       	out	0x3d, r28	; 61
    1622:	cf 91       	pop	r28
    1624:	df 91       	pop	r29
    1626:	1f 91       	pop	r17
    1628:	0f 91       	pop	r16
    162a:	08 95       	ret

0000162c <ASA_UART_set>:
    162c:	ef 92       	push	r14
    162e:	0f 93       	push	r16
    1630:	df 93       	push	r29
    1632:	cf 93       	push	r28
    1634:	cd b7       	in	r28, 0x3d	; 61
    1636:	de b7       	in	r29, 0x3e	; 62
    1638:	28 97       	sbiw	r28, 0x08	; 8
    163a:	0f b6       	in	r0, 0x3f	; 63
    163c:	f8 94       	cli
    163e:	de bf       	out	0x3e, r29	; 62
    1640:	0f be       	out	0x3f, r0	; 63
    1642:	cd bf       	out	0x3d, r28	; 61
    1644:	6c 83       	std	Y+4, r22	; 0x04
    1646:	4d 83       	std	Y+5, r20	; 0x05
    1648:	2e 83       	std	Y+6, r18	; 0x06
    164a:	0f 83       	std	Y+7, r16	; 0x07
    164c:	e8 86       	std	Y+8, r14	; 0x08
    164e:	19 82       	std	Y+1, r1	; 0x01
    1650:	1a 82       	std	Y+2, r1	; 0x02
    1652:	0e 94 b7 0b 	call	0x176e	; 0x176e <ASA_ID_set>
    1656:	8a 81       	ldd	r24, Y+2	; 0x02
    1658:	99 81       	ldd	r25, Y+1	; 0x01
    165a:	89 0f       	add	r24, r25
    165c:	9d 81       	ldd	r25, Y+5	; 0x05
    165e:	89 0f       	add	r24, r25
    1660:	9e 81       	ldd	r25, Y+6	; 0x06
    1662:	89 0f       	add	r24, r25
    1664:	9f 81       	ldd	r25, Y+7	; 0x07
    1666:	89 0f       	add	r24, r25
    1668:	98 85       	ldd	r25, Y+8	; 0x08
    166a:	89 0f       	add	r24, r25
    166c:	89 83       	std	Y+1, r24	; 0x01
    166e:	8f e2       	ldi	r24, 0x2F	; 47
    1670:	91 e0       	ldi	r25, 0x01	; 1
    1672:	61 e0       	ldi	r22, 0x01	; 1
    1674:	ae 01       	movw	r20, r28
    1676:	4c 5f       	subi	r20, 0xFC	; 252
    1678:	5f 4f       	sbci	r21, 0xFF	; 255
    167a:	0e 94 34 03 	call	0x668	; 0x668 <BatchBuffer_put>
    167e:	8f e2       	ldi	r24, 0x2F	; 47
    1680:	91 e0       	ldi	r25, 0x01	; 1
    1682:	61 e0       	ldi	r22, 0x01	; 1
    1684:	ae 01       	movw	r20, r28
    1686:	4e 5f       	subi	r20, 0xFE	; 254
    1688:	5f 4f       	sbci	r21, 0xFF	; 255
    168a:	0e 94 34 03 	call	0x668	; 0x668 <BatchBuffer_put>
    168e:	8f e2       	ldi	r24, 0x2F	; 47
    1690:	91 e0       	ldi	r25, 0x01	; 1
    1692:	61 e0       	ldi	r22, 0x01	; 1
    1694:	ae 01       	movw	r20, r28
    1696:	4b 5f       	subi	r20, 0xFB	; 251
    1698:	5f 4f       	sbci	r21, 0xFF	; 255
    169a:	0e 94 34 03 	call	0x668	; 0x668 <BatchBuffer_put>
    169e:	8f e2       	ldi	r24, 0x2F	; 47
    16a0:	91 e0       	ldi	r25, 0x01	; 1
    16a2:	61 e0       	ldi	r22, 0x01	; 1
    16a4:	ae 01       	movw	r20, r28
    16a6:	4a 5f       	subi	r20, 0xFA	; 250
    16a8:	5f 4f       	sbci	r21, 0xFF	; 255
    16aa:	0e 94 34 03 	call	0x668	; 0x668 <BatchBuffer_put>
    16ae:	8f e2       	ldi	r24, 0x2F	; 47
    16b0:	91 e0       	ldi	r25, 0x01	; 1
    16b2:	61 e0       	ldi	r22, 0x01	; 1
    16b4:	ae 01       	movw	r20, r28
    16b6:	49 5f       	subi	r20, 0xF9	; 249
    16b8:	5f 4f       	sbci	r21, 0xFF	; 255
    16ba:	0e 94 34 03 	call	0x668	; 0x668 <BatchBuffer_put>
    16be:	8f e2       	ldi	r24, 0x2F	; 47
    16c0:	91 e0       	ldi	r25, 0x01	; 1
    16c2:	61 e0       	ldi	r22, 0x01	; 1
    16c4:	ae 01       	movw	r20, r28
    16c6:	48 5f       	subi	r20, 0xF8	; 248
    16c8:	5f 4f       	sbci	r21, 0xFF	; 255
    16ca:	0e 94 34 03 	call	0x668	; 0x668 <BatchBuffer_put>
    16ce:	8f e2       	ldi	r24, 0x2F	; 47
    16d0:	91 e0       	ldi	r25, 0x01	; 1
    16d2:	61 e0       	ldi	r22, 0x01	; 1
    16d4:	ae 01       	movw	r20, r28
    16d6:	4f 5f       	subi	r20, 0xFF	; 255
    16d8:	5f 4f       	sbci	r21, 0xFF	; 255
    16da:	0e 94 34 03 	call	0x668	; 0x668 <BatchBuffer_put>
    16de:	8c 81       	ldd	r24, Y+4	; 0x04
    16e0:	80 93 90 01 	sts	0x0190, r24
    16e4:	8a 81       	ldd	r24, Y+2	; 0x02
    16e6:	80 93 91 01 	sts	0x0191, r24
    16ea:	80 ef       	ldi	r24, 0xF0	; 240
    16ec:	0e 94 c5 0b 	call	0x178a	; 0x178a <UART1_putchar>
    16f0:	80 91 9a 00 	lds	r24, 0x009A
    16f4:	80 64       	ori	r24, 0x40	; 64
    16f6:	80 93 9a 00 	sts	0x009A, r24
    16fa:	80 91 9a 00 	lds	r24, 0x009A
    16fe:	86 fd       	sbrc	r24, 6
    1700:	fc cf       	rjmp	.-8      	; 0x16fa <ASA_UART_set+0xce>
    1702:	10 92 b7 01 	sts	0x01B7, r1
    1706:	80 91 9a 00 	lds	r24, 0x009A
    170a:	80 68       	ori	r24, 0x80	; 128
    170c:	80 93 9a 00 	sts	0x009A, r24
    1710:	81 e0       	ldi	r24, 0x01	; 1
    1712:	80 93 bb 01 	sts	0x01BB, r24
    1716:	80 91 56 01 	lds	r24, 0x0156
    171a:	81 30       	cpi	r24, 0x01	; 1
    171c:	21 f0       	breq	.+8      	; 0x1726 <ASA_UART_set+0xfa>
    171e:	80 91 b8 01 	lds	r24, 0x01B8
    1722:	82 30       	cpi	r24, 0x02	; 2
    1724:	c1 f7       	brne	.-16     	; 0x1716 <ASA_UART_set+0xea>
    1726:	10 92 bb 01 	sts	0x01BB, r1
    172a:	80 91 56 01 	lds	r24, 0x0156
    172e:	81 30       	cpi	r24, 0x01	; 1
    1730:	11 f0       	breq	.+4      	; 0x1736 <ASA_UART_set+0x10a>
    1732:	81 e0       	ldi	r24, 0x01	; 1
    1734:	0b c0       	rjmp	.+22     	; 0x174c <ASA_UART_set+0x120>
    1736:	83 e5       	ldi	r24, 0x53	; 83
    1738:	91 e0       	ldi	r25, 0x01	; 1
    173a:	61 e0       	ldi	r22, 0x01	; 1
    173c:	ae 01       	movw	r20, r28
    173e:	4d 5f       	subi	r20, 0xFD	; 253
    1740:	5f 4f       	sbci	r21, 0xFF	; 255
    1742:	0e 94 79 03 	call	0x6f2	; 0x6f2 <BatchBuffer_get>
    1746:	8b 81       	ldd	r24, Y+3	; 0x03
    1748:	88 0f       	add	r24, r24
    174a:	88 0f       	add	r24, r24
    174c:	28 96       	adiw	r28, 0x08	; 8
    174e:	0f b6       	in	r0, 0x3f	; 63
    1750:	f8 94       	cli
    1752:	de bf       	out	0x3e, r29	; 62
    1754:	0f be       	out	0x3f, r0	; 63
    1756:	cd bf       	out	0x3d, r28	; 61
    1758:	cf 91       	pop	r28
    175a:	df 91       	pop	r29
    175c:	0f 91       	pop	r16
    175e:	ef 90       	pop	r14
    1760:	08 95       	ret

00001762 <ASA_ID_check>:
    1762:	90 e0       	ldi	r25, 0x00	; 0
    1764:	88 30       	cpi	r24, 0x08	; 8
    1766:	08 f0       	brcs	.+2      	; 0x176a <ASA_ID_check+0x8>
    1768:	91 e0       	ldi	r25, 0x01	; 1
    176a:	89 2f       	mov	r24, r25
    176c:	08 95       	ret

0000176e <ASA_ID_set>:
    176e:	98 2f       	mov	r25, r24
    1770:	88 30       	cpi	r24, 0x08	; 8
    1772:	10 f0       	brcs	.+4      	; 0x1778 <ASA_ID_set+0xa>
    1774:	81 e0       	ldi	r24, 0x01	; 1
    1776:	08 95       	ret
    1778:	88 b3       	in	r24, 0x18	; 24
    177a:	92 95       	swap	r25
    177c:	99 0f       	add	r25, r25
    177e:	90 7e       	andi	r25, 0xE0	; 224
    1780:	8f 71       	andi	r24, 0x1F	; 31
    1782:	89 2b       	or	r24, r25
    1784:	88 bb       	out	0x18, r24	; 24
    1786:	80 e0       	ldi	r24, 0x00	; 0
    1788:	08 95       	ret

0000178a <UART1_putchar>:
    178a:	98 2f       	mov	r25, r24
    178c:	80 91 9b 00 	lds	r24, 0x009B
    1790:	85 ff       	sbrs	r24, 5
    1792:	fc cf       	rjmp	.-8      	; 0x178c <UART1_putchar+0x2>
    1794:	90 93 9c 00 	sts	0x009C, r25
    milliseconds can be achieved.
 */
void
_delay_loop_2(uint16_t __count)
{
	__asm__ volatile (
    1798:	83 eb       	ldi	r24, 0xB3	; 179
    179a:	92 e0       	ldi	r25, 0x02	; 2
    179c:	01 97       	sbiw	r24, 0x01	; 1
    179e:	f1 f7       	brne	.-4      	; 0x179c <UART1_putchar+0x12>
    17a0:	08 95       	ret

000017a2 <UART1_getchar>:
    17a2:	80 91 9b 00 	lds	r24, 0x009B
    17a6:	87 ff       	sbrs	r24, 7
    17a8:	fc cf       	rjmp	.-8      	; 0x17a2 <UART1_getchar>
    17aa:	80 91 9c 00 	lds	r24, 0x009C
    17ae:	08 95       	ret

000017b0 <SPI_Transfer>:
    17b0:	8f b9       	out	0x0f, r24	; 15
    17b2:	77 9b       	sbis	0x0e, 7	; 14
    17b4:	fe cf       	rjmp	.-4      	; 0x17b2 <SPI_Transfer+0x2>
    17b6:	8f b1       	in	r24, 0x0f	; 15
    17b8:	08 95       	ret

000017ba <SPI_Receive>:
    17ba:	1f b8       	out	0x0f, r1	; 15
    17bc:	77 9b       	sbis	0x0e, 7	; 14
    17be:	fe cf       	rjmp	.-4      	; 0x17bc <SPI_Receive+0x2>
    17c0:	8f b1       	in	r24, 0x0f	; 15
    17c2:	08 95       	ret

000017c4 <ASA_putchar>:
    17c4:	1f 93       	push	r17
    17c6:	16 2f       	mov	r17, r22
    17c8:	0e 94 b7 0b 	call	0x176e	; 0x176e <ASA_ID_set>
    17cc:	8d e3       	ldi	r24, 0x3D	; 61
    17ce:	93 e0       	ldi	r25, 0x03	; 3
    17d0:	01 97       	sbiw	r24, 0x01	; 1
    17d2:	f1 f7       	brne	.-4      	; 0x17d0 <ASA_putchar+0xc>
    17d4:	80 91 9b 00 	lds	r24, 0x009B
    17d8:	85 ff       	sbrs	r24, 5
    17da:	fc cf       	rjmp	.-8      	; 0x17d4 <ASA_putchar+0x10>
    17dc:	10 93 9c 00 	sts	0x009C, r17
    17e0:	83 eb       	ldi	r24, 0xB3	; 179
    17e2:	92 e0       	ldi	r25, 0x02	; 2
    17e4:	01 97       	sbiw	r24, 0x01	; 1
    17e6:	f1 f7       	brne	.-4      	; 0x17e4 <ASA_putchar+0x20>
    17e8:	80 e0       	ldi	r24, 0x00	; 0
    17ea:	1f 91       	pop	r17
    17ec:	08 95       	ret

000017ee <ASA_getchar>:
    17ee:	cf 93       	push	r28
    17f0:	df 93       	push	r29
    17f2:	eb 01       	movw	r28, r22
    17f4:	0e 94 b7 0b 	call	0x176e	; 0x176e <ASA_ID_set>
    17f8:	8d e3       	ldi	r24, 0x3D	; 61
    17fa:	93 e0       	ldi	r25, 0x03	; 3
    17fc:	01 97       	sbiw	r24, 0x01	; 1
    17fe:	f1 f7       	brne	.-4      	; 0x17fc <ASA_getchar+0xe>
    1800:	20 e0       	ldi	r18, 0x00	; 0
    1802:	30 e0       	ldi	r19, 0x00	; 0
    1804:	08 c0       	rjmp	.+16     	; 0x1816 <ASA_getchar+0x28>
    1806:	2f 5f       	subi	r18, 0xFF	; 255
    1808:	3f 4f       	sbci	r19, 0xFF	; 255
    180a:	8f ef       	ldi	r24, 0xFF	; 255
    180c:	2f 3f       	cpi	r18, 0xFF	; 255
    180e:	38 07       	cpc	r19, r24
    1810:	11 f4       	brne	.+4      	; 0x1816 <ASA_getchar+0x28>
    1812:	81 e0       	ldi	r24, 0x01	; 1
    1814:	08 c0       	rjmp	.+16     	; 0x1826 <ASA_getchar+0x38>
    1816:	80 91 9b 00 	lds	r24, 0x009B
    181a:	87 ff       	sbrs	r24, 7
    181c:	f4 cf       	rjmp	.-24     	; 0x1806 <ASA_getchar+0x18>
    181e:	80 91 9c 00 	lds	r24, 0x009C
    1822:	88 83       	st	Y, r24
    1824:	80 e0       	ldi	r24, 0x00	; 0
    1826:	df 91       	pop	r29
    1828:	cf 91       	pop	r28
    182a:	08 95       	ret

0000182c <PC_putchar>:
    182c:	5d 9b       	sbis	0x0b, 5	; 11
    182e:	fe cf       	rjmp	.-4      	; 0x182c <PC_putchar>
    1830:	8c b9       	out	0x0c, r24	; 12
    1832:	08 95       	ret

00001834 <PC_getchar>:
    1834:	5f 9b       	sbis	0x0b, 7	; 11
    1836:	fe cf       	rjmp	.-4      	; 0x1834 <PC_getchar>
    1838:	8c b1       	in	r24, 0x0c	; 12
    183a:	08 95       	ret

0000183c <TWI_ERROR>:
    183c:	84 e9       	ldi	r24, 0x94	; 148
    183e:	80 93 74 00 	sts	0x0074, r24
    1842:	08 95       	ret

00001844 <TWI_Start>:
    1844:	84 ea       	ldi	r24, 0xA4	; 164
    1846:	80 93 74 00 	sts	0x0074, r24
    184a:	80 91 74 00 	lds	r24, 0x0074
    184e:	87 ff       	sbrs	r24, 7
    1850:	fc cf       	rjmp	.-8      	; 0x184a <TWI_Start+0x6>
    1852:	80 91 71 00 	lds	r24, 0x0071
    1856:	88 7f       	andi	r24, 0xF8	; 248
    1858:	88 30       	cpi	r24, 0x08	; 8
    185a:	11 f4       	brne	.+4      	; 0x1860 <TWI_Start+0x1c>
    185c:	80 e0       	ldi	r24, 0x00	; 0
    185e:	08 95       	ret
    1860:	84 e9       	ldi	r24, 0x94	; 148
    1862:	80 93 74 00 	sts	0x0074, r24
    1866:	81 e0       	ldi	r24, 0x01	; 1
    1868:	08 95       	ret

0000186a <TWI_Stop>:
    186a:	84 e9       	ldi	r24, 0x94	; 148
    186c:	80 93 74 00 	sts	0x0074, r24
    1870:	08 95       	ret

00001872 <TWI_ReStart>:
    1872:	84 ea       	ldi	r24, 0xA4	; 164
    1874:	80 93 74 00 	sts	0x0074, r24
    1878:	80 91 74 00 	lds	r24, 0x0074
    187c:	87 ff       	sbrs	r24, 7
    187e:	fc cf       	rjmp	.-8      	; 0x1878 <TWI_ReStart+0x6>
    1880:	80 91 71 00 	lds	r24, 0x0071
    1884:	88 7f       	andi	r24, 0xF8	; 248
    1886:	80 31       	cpi	r24, 0x10	; 16
    1888:	11 f4       	brne	.+4      	; 0x188e <TWI_ReStart+0x1c>
    188a:	80 e0       	ldi	r24, 0x00	; 0
    188c:	08 95       	ret
    188e:	84 e9       	ldi	r24, 0x94	; 148
    1890:	80 93 74 00 	sts	0x0074, r24
    1894:	82 e0       	ldi	r24, 0x02	; 2
    1896:	08 95       	ret

00001898 <TWI_SendSLAW>:
    1898:	90 e0       	ldi	r25, 0x00	; 0
    189a:	88 0f       	add	r24, r24
    189c:	99 1f       	adc	r25, r25
    189e:	80 93 73 00 	sts	0x0073, r24
    18a2:	84 e8       	ldi	r24, 0x84	; 132
    18a4:	80 93 74 00 	sts	0x0074, r24
    18a8:	80 91 74 00 	lds	r24, 0x0074
    18ac:	87 ff       	sbrs	r24, 7
    18ae:	fc cf       	rjmp	.-8      	; 0x18a8 <TWI_SendSLAW+0x10>
    18b0:	80 91 71 00 	lds	r24, 0x0071
    18b4:	88 7f       	andi	r24, 0xF8	; 248
    18b6:	88 31       	cpi	r24, 0x18	; 24
    18b8:	19 f0       	breq	.+6      	; 0x18c0 <TWI_SendSLAW+0x28>
    18ba:	84 e9       	ldi	r24, 0x94	; 148
    18bc:	80 93 74 00 	sts	0x0074, r24
    18c0:	08 95       	ret

000018c2 <TWI_SendSLAR>:
    18c2:	88 0f       	add	r24, r24
    18c4:	8f 5f       	subi	r24, 0xFF	; 255
    18c6:	80 93 73 00 	sts	0x0073, r24
    18ca:	84 e8       	ldi	r24, 0x84	; 132
    18cc:	80 93 74 00 	sts	0x0074, r24
    18d0:	80 91 74 00 	lds	r24, 0x0074
    18d4:	87 ff       	sbrs	r24, 7
    18d6:	fc cf       	rjmp	.-8      	; 0x18d0 <TWI_SendSLAR+0xe>
    18d8:	80 91 71 00 	lds	r24, 0x0071
    18dc:	88 7f       	andi	r24, 0xF8	; 248
    18de:	80 34       	cpi	r24, 0x40	; 64
    18e0:	19 f0       	breq	.+6      	; 0x18e8 <TWI_SendSLAR+0x26>
    18e2:	84 e9       	ldi	r24, 0x94	; 148
    18e4:	80 93 74 00 	sts	0x0074, r24
    18e8:	08 95       	ret

000018ea <TWI_TransmitData>:
    18ea:	80 93 73 00 	sts	0x0073, r24
    18ee:	84 e8       	ldi	r24, 0x84	; 132
    18f0:	80 93 74 00 	sts	0x0074, r24
    18f4:	80 91 74 00 	lds	r24, 0x0074
    18f8:	87 ff       	sbrs	r24, 7
    18fa:	fc cf       	rjmp	.-8      	; 0x18f4 <TWI_TransmitData+0xa>
    18fc:	80 91 71 00 	lds	r24, 0x0071
    1900:	88 7f       	andi	r24, 0xF8	; 248
    1902:	88 32       	cpi	r24, 0x28	; 40
    1904:	19 f0       	breq	.+6      	; 0x190c <TWI_TransmitData+0x22>
    1906:	84 e9       	ldi	r24, 0x94	; 148
    1908:	80 93 74 00 	sts	0x0074, r24
    190c:	08 95       	ret

0000190e <TWI_ReceiveData>:
    190e:	84 ec       	ldi	r24, 0xC4	; 196
    1910:	80 93 74 00 	sts	0x0074, r24
    1914:	80 91 74 00 	lds	r24, 0x0074
    1918:	87 ff       	sbrs	r24, 7
    191a:	fc cf       	rjmp	.-8      	; 0x1914 <TWI_ReceiveData+0x6>
    191c:	80 91 71 00 	lds	r24, 0x0071
    1920:	88 7f       	andi	r24, 0xF8	; 248
    1922:	80 35       	cpi	r24, 0x50	; 80
    1924:	19 f0       	breq	.+6      	; 0x192c <TWI_ReceiveData+0x1e>
    1926:	84 e9       	ldi	r24, 0x94	; 148
    1928:	80 93 74 00 	sts	0x0074, r24
    192c:	80 91 73 00 	lds	r24, 0x0073
    1930:	08 95       	ret

00001932 <TWI_SendNoAck>:
    1932:	84 e8       	ldi	r24, 0x84	; 132
    1934:	80 93 74 00 	sts	0x0074, r24
    1938:	80 91 74 00 	lds	r24, 0x0074
    193c:	87 ff       	sbrs	r24, 7
    193e:	fc cf       	rjmp	.-8      	; 0x1938 <TWI_SendNoAck+0x6>
    1940:	80 91 71 00 	lds	r24, 0x0071
    1944:	88 7f       	andi	r24, 0xF8	; 248
    1946:	88 35       	cpi	r24, 0x58	; 88
    1948:	19 f0       	breq	.+6      	; 0x1950 <TWI_SendNoAck+0x1e>
    194a:	84 e9       	ldi	r24, 0x94	; 148
    194c:	80 93 74 00 	sts	0x0074, r24
    1950:	08 95       	ret

00001952 <TWI_wr>:
    1952:	ff 92       	push	r15
    1954:	0f 93       	push	r16
    1956:	1f 93       	push	r17
    1958:	18 2f       	mov	r17, r24
    195a:	06 2f       	mov	r16, r22
    195c:	f4 2e       	mov	r15, r20
    195e:	0e 94 22 0c 	call	0x1844	; 0x1844 <TWI_Start>
    1962:	81 2f       	mov	r24, r17
    1964:	0e 94 4c 0c 	call	0x1898	; 0x1898 <TWI_SendSLAW>
    1968:	80 2f       	mov	r24, r16
    196a:	0e 94 75 0c 	call	0x18ea	; 0x18ea <TWI_TransmitData>
    196e:	8f 2d       	mov	r24, r15
    1970:	0e 94 75 0c 	call	0x18ea	; 0x18ea <TWI_TransmitData>
    1974:	84 e9       	ldi	r24, 0x94	; 148
    1976:	80 93 74 00 	sts	0x0074, r24
    197a:	1f 91       	pop	r17
    197c:	0f 91       	pop	r16
    197e:	ff 90       	pop	r15
    1980:	08 95       	ret

00001982 <TWI_rd>:
    1982:	0f 93       	push	r16
    1984:	1f 93       	push	r17
    1986:	08 2f       	mov	r16, r24
    1988:	16 2f       	mov	r17, r22
    198a:	0e 94 22 0c 	call	0x1844	; 0x1844 <TWI_Start>
    198e:	80 2f       	mov	r24, r16
    1990:	0e 94 4c 0c 	call	0x1898	; 0x1898 <TWI_SendSLAW>
    1994:	81 2f       	mov	r24, r17
    1996:	0e 94 75 0c 	call	0x18ea	; 0x18ea <TWI_TransmitData>
    199a:	0e 94 39 0c 	call	0x1872	; 0x1872 <TWI_ReStart>
    199e:	80 2f       	mov	r24, r16
    19a0:	0e 94 61 0c 	call	0x18c2	; 0x18c2 <TWI_SendSLAR>
    19a4:	0e 94 87 0c 	call	0x190e	; 0x190e <TWI_ReceiveData>
    19a8:	18 2f       	mov	r17, r24
    19aa:	0e 94 99 0c 	call	0x1932	; 0x1932 <TWI_SendNoAck>
    19ae:	84 e9       	ldi	r24, 0x94	; 148
    19b0:	80 93 74 00 	sts	0x0074, r24
    19b4:	81 2f       	mov	r24, r17
    19b6:	1f 91       	pop	r17
    19b8:	0f 91       	pop	r16
    19ba:	08 95       	ret

000019bc <TWI_initialize>:
    19bc:	80 93 70 00 	sts	0x0070, r24
    19c0:	08 95       	ret

000019c2 <TWI_Write>:
    19c2:	ef 92       	push	r14
    19c4:	ff 92       	push	r15
    19c6:	0f 93       	push	r16
    19c8:	1f 93       	push	r17
    19ca:	18 2f       	mov	r17, r24
    19cc:	06 2f       	mov	r16, r22
    19ce:	f7 2e       	mov	r15, r23
    19d0:	e4 2e       	mov	r14, r20
    19d2:	0e 94 22 0c 	call	0x1844	; 0x1844 <TWI_Start>
    19d6:	81 30       	cpi	r24, 0x01	; 1
    19d8:	09 f4       	brne	.+2      	; 0x19dc <TWI_Write+0x1a>
    19da:	41 c0       	rjmp	.+130    	; 0x1a5e <TWI_Write+0x9c>
    19dc:	81 2f       	mov	r24, r17
    19de:	90 e0       	ldi	r25, 0x00	; 0
    19e0:	88 0f       	add	r24, r24
    19e2:	99 1f       	adc	r25, r25
    19e4:	90 70       	andi	r25, 0x00	; 0
    19e6:	80 93 73 00 	sts	0x0073, r24
    19ea:	84 e8       	ldi	r24, 0x84	; 132
    19ec:	80 93 74 00 	sts	0x0074, r24
    19f0:	80 91 74 00 	lds	r24, 0x0074
    19f4:	87 ff       	sbrs	r24, 7
    19f6:	fc cf       	rjmp	.-8      	; 0x19f0 <TWI_Write+0x2e>
    19f8:	80 91 71 00 	lds	r24, 0x0071
    19fc:	88 7f       	andi	r24, 0xF8	; 248
    19fe:	88 31       	cpi	r24, 0x18	; 24
    1a00:	39 f4       	brne	.+14     	; 0x1a10 <TWI_Write+0x4e>
    1a02:	80 2f       	mov	r24, r16
    1a04:	9f 2d       	mov	r25, r15
    1a06:	9c 01       	movw	r18, r24
    1a08:	f9 01       	movw	r30, r18
    1a0a:	90 e0       	ldi	r25, 0x00	; 0
    1a0c:	24 e8       	ldi	r18, 0x84	; 132
    1a0e:	1a c0       	rjmp	.+52     	; 0x1a44 <TWI_Write+0x82>
    1a10:	84 e9       	ldi	r24, 0x94	; 148
    1a12:	80 93 74 00 	sts	0x0074, r24
    1a16:	83 e0       	ldi	r24, 0x03	; 3
    1a18:	22 c0       	rjmp	.+68     	; 0x1a5e <TWI_Write+0x9c>
    1a1a:	80 81       	ld	r24, Z
    1a1c:	80 93 73 00 	sts	0x0073, r24
    1a20:	20 93 74 00 	sts	0x0074, r18
    1a24:	80 91 74 00 	lds	r24, 0x0074
    1a28:	87 ff       	sbrs	r24, 7
    1a2a:	fc cf       	rjmp	.-8      	; 0x1a24 <TWI_Write+0x62>
    1a2c:	80 91 71 00 	lds	r24, 0x0071
    1a30:	31 96       	adiw	r30, 0x01	; 1
    1a32:	88 7f       	andi	r24, 0xF8	; 248
    1a34:	88 32       	cpi	r24, 0x28	; 40
    1a36:	29 f0       	breq	.+10     	; 0x1a42 <TWI_Write+0x80>
    1a38:	84 e9       	ldi	r24, 0x94	; 148
    1a3a:	80 93 74 00 	sts	0x0074, r24
    1a3e:	84 e0       	ldi	r24, 0x04	; 4
    1a40:	0e c0       	rjmp	.+28     	; 0x1a5e <TWI_Write+0x9c>
    1a42:	9f 5f       	subi	r25, 0xFF	; 255
    1a44:	9e 15       	cp	r25, r14
    1a46:	48 f3       	brcs	.-46     	; 0x1a1a <TWI_Write+0x58>
    1a48:	81 e0       	ldi	r24, 0x01	; 1
    1a4a:	8e 15       	cp	r24, r14
    1a4c:	20 f4       	brcc	.+8      	; 0x1a56 <TWI_Write+0x94>
    1a4e:	84 e9       	ldi	r24, 0x94	; 148
    1a50:	80 93 74 00 	sts	0x0074, r24
    1a54:	03 c0       	rjmp	.+6      	; 0x1a5c <TWI_Write+0x9a>
    1a56:	81 e0       	ldi	r24, 0x01	; 1
    1a58:	80 93 e7 01 	sts	0x01E7, r24
    1a5c:	80 e0       	ldi	r24, 0x00	; 0
    1a5e:	1f 91       	pop	r17
    1a60:	0f 91       	pop	r16
    1a62:	ff 90       	pop	r15
    1a64:	ef 90       	pop	r14
    1a66:	08 95       	ret

00001a68 <TWI_Read>:
    1a68:	0f 93       	push	r16
    1a6a:	1f 93       	push	r17
    1a6c:	cf 93       	push	r28
    1a6e:	df 93       	push	r29
    1a70:	08 2f       	mov	r16, r24
    1a72:	eb 01       	movw	r28, r22
    1a74:	14 2f       	mov	r17, r20
    1a76:	80 91 e7 01 	lds	r24, 0x01E7
    1a7a:	81 30       	cpi	r24, 0x01	; 1
    1a7c:	41 f4       	brne	.+16     	; 0x1a8e <TWI_Read+0x26>
    1a7e:	0e 94 39 0c 	call	0x1872	; 0x1872 <TWI_ReStart>
    1a82:	82 30       	cpi	r24, 0x02	; 2
    1a84:	09 f4       	brne	.+2      	; 0x1a88 <TWI_Read+0x20>
    1a86:	74 c0       	rjmp	.+232    	; 0x1b70 <TWI_Read+0x108>
    1a88:	10 92 e7 01 	sts	0x01E7, r1
    1a8c:	02 c0       	rjmp	.+4      	; 0x1a92 <TWI_Read+0x2a>
    1a8e:	0e 94 22 0c 	call	0x1844	; 0x1844 <TWI_Start>
    1a92:	81 30       	cpi	r24, 0x01	; 1
    1a94:	09 f4       	brne	.+2      	; 0x1a98 <TWI_Read+0x30>
    1a96:	6c c0       	rjmp	.+216    	; 0x1b70 <TWI_Read+0x108>
    1a98:	80 2f       	mov	r24, r16
    1a9a:	90 e0       	ldi	r25, 0x00	; 0
    1a9c:	88 0f       	add	r24, r24
    1a9e:	99 1f       	adc	r25, r25
    1aa0:	81 60       	ori	r24, 0x01	; 1
    1aa2:	80 93 73 00 	sts	0x0073, r24
    1aa6:	84 e8       	ldi	r24, 0x84	; 132
    1aa8:	80 93 74 00 	sts	0x0074, r24
    1aac:	80 91 74 00 	lds	r24, 0x0074
    1ab0:	87 ff       	sbrs	r24, 7
    1ab2:	fc cf       	rjmp	.-8      	; 0x1aac <TWI_Read+0x44>
    1ab4:	80 91 71 00 	lds	r24, 0x0071
    1ab8:	88 7f       	andi	r24, 0xF8	; 248
    1aba:	80 34       	cpi	r24, 0x40	; 64
    1abc:	29 f0       	breq	.+10     	; 0x1ac8 <TWI_Read+0x60>
    1abe:	84 e9       	ldi	r24, 0x94	; 148
    1ac0:	80 93 74 00 	sts	0x0074, r24
    1ac4:	85 e0       	ldi	r24, 0x05	; 5
    1ac6:	54 c0       	rjmp	.+168    	; 0x1b70 <TWI_Read+0x108>
    1ac8:	12 30       	cpi	r17, 0x02	; 2
    1aca:	d0 f1       	brcs	.+116    	; 0x1b40 <TWI_Read+0xd8>
    1acc:	40 e0       	ldi	r20, 0x00	; 0
    1ace:	21 2f       	mov	r18, r17
    1ad0:	30 e0       	ldi	r19, 0x00	; 0
    1ad2:	21 50       	subi	r18, 0x01	; 1
    1ad4:	30 40       	sbci	r19, 0x00	; 0
    1ad6:	54 ec       	ldi	r21, 0xC4	; 196
    1ad8:	17 c0       	rjmp	.+46     	; 0x1b08 <TWI_Read+0xa0>
    1ada:	50 93 74 00 	sts	0x0074, r21
    1ade:	80 91 74 00 	lds	r24, 0x0074
    1ae2:	87 ff       	sbrs	r24, 7
    1ae4:	fc cf       	rjmp	.-8      	; 0x1ade <TWI_Read+0x76>
    1ae6:	80 91 71 00 	lds	r24, 0x0071
    1aea:	88 7f       	andi	r24, 0xF8	; 248
    1aec:	80 35       	cpi	r24, 0x50	; 80
    1aee:	29 f0       	breq	.+10     	; 0x1afa <TWI_Read+0x92>
    1af0:	84 e9       	ldi	r24, 0x94	; 148
    1af2:	80 93 74 00 	sts	0x0074, r24
    1af6:	86 e0       	ldi	r24, 0x06	; 6
    1af8:	3b c0       	rjmp	.+118    	; 0x1b70 <TWI_Read+0x108>
    1afa:	80 91 73 00 	lds	r24, 0x0073
    1afe:	fe 01       	movw	r30, r28
    1b00:	e4 0f       	add	r30, r20
    1b02:	f1 1d       	adc	r31, r1
    1b04:	80 83       	st	Z, r24
    1b06:	4f 5f       	subi	r20, 0xFF	; 255
    1b08:	84 2f       	mov	r24, r20
    1b0a:	90 e0       	ldi	r25, 0x00	; 0
    1b0c:	82 17       	cp	r24, r18
    1b0e:	93 07       	cpc	r25, r19
    1b10:	24 f3       	brlt	.-56     	; 0x1ada <TWI_Read+0x72>
    1b12:	84 e8       	ldi	r24, 0x84	; 132
    1b14:	80 93 74 00 	sts	0x0074, r24
    1b18:	80 91 74 00 	lds	r24, 0x0074
    1b1c:	87 ff       	sbrs	r24, 7
    1b1e:	fc cf       	rjmp	.-8      	; 0x1b18 <TWI_Read+0xb0>
    1b20:	80 91 71 00 	lds	r24, 0x0071
    1b24:	88 7f       	andi	r24, 0xF8	; 248
    1b26:	88 35       	cpi	r24, 0x58	; 88
    1b28:	29 f0       	breq	.+10     	; 0x1b34 <TWI_Read+0xcc>
    1b2a:	84 e9       	ldi	r24, 0x94	; 148
    1b2c:	80 93 74 00 	sts	0x0074, r24
    1b30:	87 e0       	ldi	r24, 0x07	; 7
    1b32:	1e c0       	rjmp	.+60     	; 0x1b70 <TWI_Read+0x108>
    1b34:	80 91 73 00 	lds	r24, 0x0073
    1b38:	c1 0f       	add	r28, r17
    1b3a:	d1 1d       	adc	r29, r1
    1b3c:	21 97       	sbiw	r28, 0x01	; 1
    1b3e:	13 c0       	rjmp	.+38     	; 0x1b66 <TWI_Read+0xfe>
    1b40:	84 e8       	ldi	r24, 0x84	; 132
    1b42:	80 93 74 00 	sts	0x0074, r24
    1b46:	80 91 74 00 	lds	r24, 0x0074
    1b4a:	87 ff       	sbrs	r24, 7
    1b4c:	fc cf       	rjmp	.-8      	; 0x1b46 <TWI_Read+0xde>
    1b4e:	80 91 71 00 	lds	r24, 0x0071
    1b52:	88 7f       	andi	r24, 0xF8	; 248
    1b54:	88 35       	cpi	r24, 0x58	; 88
    1b56:	29 f0       	breq	.+10     	; 0x1b62 <TWI_Read+0xfa>
    1b58:	84 e9       	ldi	r24, 0x94	; 148
    1b5a:	80 93 74 00 	sts	0x0074, r24
    1b5e:	88 e0       	ldi	r24, 0x08	; 8
    1b60:	07 c0       	rjmp	.+14     	; 0x1b70 <TWI_Read+0x108>
    1b62:	80 91 73 00 	lds	r24, 0x0073
    1b66:	88 83       	st	Y, r24
    1b68:	84 e9       	ldi	r24, 0x94	; 148
    1b6a:	80 93 74 00 	sts	0x0074, r24
    1b6e:	80 e0       	ldi	r24, 0x00	; 0
    1b70:	df 91       	pop	r29
    1b72:	cf 91       	pop	r28
    1b74:	1f 91       	pop	r17
    1b76:	0f 91       	pop	r16
    1b78:	08 95       	ret

00001b7a <printf>:
    1b7a:	df 93       	push	r29
    1b7c:	cf 93       	push	r28
    1b7e:	cd b7       	in	r28, 0x3d	; 61
    1b80:	de b7       	in	r29, 0x3e	; 62
    1b82:	fe 01       	movw	r30, r28
    1b84:	35 96       	adiw	r30, 0x05	; 5
    1b86:	61 91       	ld	r22, Z+
    1b88:	71 91       	ld	r23, Z+
    1b8a:	80 91 eb 01 	lds	r24, 0x01EB
    1b8e:	90 91 ec 01 	lds	r25, 0x01EC
    1b92:	af 01       	movw	r20, r30
    1b94:	0e 94 1d 0e 	call	0x1c3a	; 0x1c3a <vfprintf>
    1b98:	cf 91       	pop	r28
    1b9a:	df 91       	pop	r29
    1b9c:	08 95       	ret

00001b9e <putchar>:
    1b9e:	60 91 eb 01 	lds	r22, 0x01EB
    1ba2:	70 91 ec 01 	lds	r23, 0x01EC
    1ba6:	0e 94 60 13 	call	0x26c0	; 0x26c0 <fputc>
    1baa:	08 95       	ret

00001bac <puts>:
    1bac:	0f 93       	push	r16
    1bae:	1f 93       	push	r17
    1bb0:	cf 93       	push	r28
    1bb2:	df 93       	push	r29
    1bb4:	8c 01       	movw	r16, r24
    1bb6:	e0 91 eb 01 	lds	r30, 0x01EB
    1bba:	f0 91 ec 01 	lds	r31, 0x01EC
    1bbe:	83 81       	ldd	r24, Z+3	; 0x03
    1bc0:	81 ff       	sbrs	r24, 1
    1bc2:	21 c0       	rjmp	.+66     	; 0x1c06 <puts+0x5a>
    1bc4:	c0 e0       	ldi	r28, 0x00	; 0
    1bc6:	d0 e0       	ldi	r29, 0x00	; 0
    1bc8:	0d c0       	rjmp	.+26     	; 0x1be4 <puts+0x38>
    1bca:	e0 91 eb 01 	lds	r30, 0x01EB
    1bce:	f0 91 ec 01 	lds	r31, 0x01EC
    1bd2:	20 85       	ldd	r18, Z+8	; 0x08
    1bd4:	31 85       	ldd	r19, Z+9	; 0x09
    1bd6:	bf 01       	movw	r22, r30
    1bd8:	f9 01       	movw	r30, r18
    1bda:	09 95       	icall
    1bdc:	89 2b       	or	r24, r25
    1bde:	11 f0       	breq	.+4      	; 0x1be4 <puts+0x38>
    1be0:	cf ef       	ldi	r28, 0xFF	; 255
    1be2:	df ef       	ldi	r29, 0xFF	; 255
    1be4:	f8 01       	movw	r30, r16
    1be6:	81 91       	ld	r24, Z+
    1be8:	8f 01       	movw	r16, r30
    1bea:	88 23       	and	r24, r24
    1bec:	71 f7       	brne	.-36     	; 0x1bca <puts+0x1e>
    1bee:	e0 91 eb 01 	lds	r30, 0x01EB
    1bf2:	f0 91 ec 01 	lds	r31, 0x01EC
    1bf6:	20 85       	ldd	r18, Z+8	; 0x08
    1bf8:	31 85       	ldd	r19, Z+9	; 0x09
    1bfa:	8a e0       	ldi	r24, 0x0A	; 10
    1bfc:	bf 01       	movw	r22, r30
    1bfe:	f9 01       	movw	r30, r18
    1c00:	09 95       	icall
    1c02:	89 2b       	or	r24, r25
    1c04:	11 f0       	breq	.+4      	; 0x1c0a <puts+0x5e>
    1c06:	cf ef       	ldi	r28, 0xFF	; 255
    1c08:	df ef       	ldi	r29, 0xFF	; 255
    1c0a:	ce 01       	movw	r24, r28
    1c0c:	df 91       	pop	r29
    1c0e:	cf 91       	pop	r28
    1c10:	1f 91       	pop	r17
    1c12:	0f 91       	pop	r16
    1c14:	08 95       	ret

00001c16 <scanf>:
    1c16:	df 93       	push	r29
    1c18:	cf 93       	push	r28
    1c1a:	cd b7       	in	r28, 0x3d	; 61
    1c1c:	de b7       	in	r29, 0x3e	; 62
    1c1e:	fe 01       	movw	r30, r28
    1c20:	35 96       	adiw	r30, 0x05	; 5
    1c22:	61 91       	ld	r22, Z+
    1c24:	71 91       	ld	r23, Z+
    1c26:	80 91 e9 01 	lds	r24, 0x01E9
    1c2a:	90 91 ea 01 	lds	r25, 0x01EA
    1c2e:	af 01       	movw	r20, r30
    1c30:	0e 94 d2 11 	call	0x23a4	; 0x23a4 <vfscanf>
    1c34:	cf 91       	pop	r28
    1c36:	df 91       	pop	r29
    1c38:	08 95       	ret

00001c3a <vfprintf>:
    1c3a:	2f 92       	push	r2
    1c3c:	3f 92       	push	r3
    1c3e:	4f 92       	push	r4
    1c40:	5f 92       	push	r5
    1c42:	6f 92       	push	r6
    1c44:	7f 92       	push	r7
    1c46:	8f 92       	push	r8
    1c48:	9f 92       	push	r9
    1c4a:	af 92       	push	r10
    1c4c:	bf 92       	push	r11
    1c4e:	cf 92       	push	r12
    1c50:	df 92       	push	r13
    1c52:	ef 92       	push	r14
    1c54:	ff 92       	push	r15
    1c56:	0f 93       	push	r16
    1c58:	1f 93       	push	r17
    1c5a:	df 93       	push	r29
    1c5c:	cf 93       	push	r28
    1c5e:	cd b7       	in	r28, 0x3d	; 61
    1c60:	de b7       	in	r29, 0x3e	; 62
    1c62:	2b 97       	sbiw	r28, 0x0b	; 11
    1c64:	0f b6       	in	r0, 0x3f	; 63
    1c66:	f8 94       	cli
    1c68:	de bf       	out	0x3e, r29	; 62
    1c6a:	0f be       	out	0x3f, r0	; 63
    1c6c:	cd bf       	out	0x3d, r28	; 61
    1c6e:	3c 01       	movw	r6, r24
    1c70:	2b 01       	movw	r4, r22
    1c72:	5a 01       	movw	r10, r20
    1c74:	fc 01       	movw	r30, r24
    1c76:	17 82       	std	Z+7, r1	; 0x07
    1c78:	16 82       	std	Z+6, r1	; 0x06
    1c7a:	83 81       	ldd	r24, Z+3	; 0x03
    1c7c:	81 fd       	sbrc	r24, 1
    1c7e:	03 c0       	rjmp	.+6      	; 0x1c86 <vfprintf+0x4c>
    1c80:	6f ef       	ldi	r22, 0xFF	; 255
    1c82:	7f ef       	ldi	r23, 0xFF	; 255
    1c84:	c6 c1       	rjmp	.+908    	; 0x2012 <vfprintf+0x3d8>
    1c86:	9a e0       	ldi	r25, 0x0A	; 10
    1c88:	89 2e       	mov	r8, r25
    1c8a:	1e 01       	movw	r2, r28
    1c8c:	08 94       	sec
    1c8e:	21 1c       	adc	r2, r1
    1c90:	31 1c       	adc	r3, r1
    1c92:	f3 01       	movw	r30, r6
    1c94:	23 81       	ldd	r18, Z+3	; 0x03
    1c96:	f2 01       	movw	r30, r4
    1c98:	23 fd       	sbrc	r18, 3
    1c9a:	85 91       	lpm	r24, Z+
    1c9c:	23 ff       	sbrs	r18, 3
    1c9e:	81 91       	ld	r24, Z+
    1ca0:	2f 01       	movw	r4, r30
    1ca2:	88 23       	and	r24, r24
    1ca4:	09 f4       	brne	.+2      	; 0x1ca8 <vfprintf+0x6e>
    1ca6:	b2 c1       	rjmp	.+868    	; 0x200c <vfprintf+0x3d2>
    1ca8:	85 32       	cpi	r24, 0x25	; 37
    1caa:	39 f4       	brne	.+14     	; 0x1cba <vfprintf+0x80>
    1cac:	23 fd       	sbrc	r18, 3
    1cae:	85 91       	lpm	r24, Z+
    1cb0:	23 ff       	sbrs	r18, 3
    1cb2:	81 91       	ld	r24, Z+
    1cb4:	2f 01       	movw	r4, r30
    1cb6:	85 32       	cpi	r24, 0x25	; 37
    1cb8:	29 f4       	brne	.+10     	; 0x1cc4 <vfprintf+0x8a>
    1cba:	90 e0       	ldi	r25, 0x00	; 0
    1cbc:	b3 01       	movw	r22, r6
    1cbe:	0e 94 60 13 	call	0x26c0	; 0x26c0 <fputc>
    1cc2:	e7 cf       	rjmp	.-50     	; 0x1c92 <vfprintf+0x58>
    1cc4:	98 2f       	mov	r25, r24
    1cc6:	ff 24       	eor	r15, r15
    1cc8:	ee 24       	eor	r14, r14
    1cca:	99 24       	eor	r9, r9
    1ccc:	ff e1       	ldi	r31, 0x1F	; 31
    1cce:	ff 15       	cp	r31, r15
    1cd0:	d0 f0       	brcs	.+52     	; 0x1d06 <vfprintf+0xcc>
    1cd2:	9b 32       	cpi	r25, 0x2B	; 43
    1cd4:	69 f0       	breq	.+26     	; 0x1cf0 <vfprintf+0xb6>
    1cd6:	9c 32       	cpi	r25, 0x2C	; 44
    1cd8:	28 f4       	brcc	.+10     	; 0x1ce4 <vfprintf+0xaa>
    1cda:	90 32       	cpi	r25, 0x20	; 32
    1cdc:	59 f0       	breq	.+22     	; 0x1cf4 <vfprintf+0xba>
    1cde:	93 32       	cpi	r25, 0x23	; 35
    1ce0:	91 f4       	brne	.+36     	; 0x1d06 <vfprintf+0xcc>
    1ce2:	0e c0       	rjmp	.+28     	; 0x1d00 <vfprintf+0xc6>
    1ce4:	9d 32       	cpi	r25, 0x2D	; 45
    1ce6:	49 f0       	breq	.+18     	; 0x1cfa <vfprintf+0xc0>
    1ce8:	90 33       	cpi	r25, 0x30	; 48
    1cea:	69 f4       	brne	.+26     	; 0x1d06 <vfprintf+0xcc>
    1cec:	41 e0       	ldi	r20, 0x01	; 1
    1cee:	24 c0       	rjmp	.+72     	; 0x1d38 <vfprintf+0xfe>
    1cf0:	52 e0       	ldi	r21, 0x02	; 2
    1cf2:	f5 2a       	or	r15, r21
    1cf4:	84 e0       	ldi	r24, 0x04	; 4
    1cf6:	f8 2a       	or	r15, r24
    1cf8:	28 c0       	rjmp	.+80     	; 0x1d4a <vfprintf+0x110>
    1cfa:	98 e0       	ldi	r25, 0x08	; 8
    1cfc:	f9 2a       	or	r15, r25
    1cfe:	25 c0       	rjmp	.+74     	; 0x1d4a <vfprintf+0x110>
    1d00:	e0 e1       	ldi	r30, 0x10	; 16
    1d02:	fe 2a       	or	r15, r30
    1d04:	22 c0       	rjmp	.+68     	; 0x1d4a <vfprintf+0x110>
    1d06:	f7 fc       	sbrc	r15, 7
    1d08:	29 c0       	rjmp	.+82     	; 0x1d5c <vfprintf+0x122>
    1d0a:	89 2f       	mov	r24, r25
    1d0c:	80 53       	subi	r24, 0x30	; 48
    1d0e:	8a 30       	cpi	r24, 0x0A	; 10
    1d10:	70 f4       	brcc	.+28     	; 0x1d2e <vfprintf+0xf4>
    1d12:	f6 fe       	sbrs	r15, 6
    1d14:	05 c0       	rjmp	.+10     	; 0x1d20 <vfprintf+0xe6>
    1d16:	98 9c       	mul	r9, r8
    1d18:	90 2c       	mov	r9, r0
    1d1a:	11 24       	eor	r1, r1
    1d1c:	98 0e       	add	r9, r24
    1d1e:	15 c0       	rjmp	.+42     	; 0x1d4a <vfprintf+0x110>
    1d20:	e8 9c       	mul	r14, r8
    1d22:	e0 2c       	mov	r14, r0
    1d24:	11 24       	eor	r1, r1
    1d26:	e8 0e       	add	r14, r24
    1d28:	f0 e2       	ldi	r31, 0x20	; 32
    1d2a:	ff 2a       	or	r15, r31
    1d2c:	0e c0       	rjmp	.+28     	; 0x1d4a <vfprintf+0x110>
    1d2e:	9e 32       	cpi	r25, 0x2E	; 46
    1d30:	29 f4       	brne	.+10     	; 0x1d3c <vfprintf+0x102>
    1d32:	f6 fc       	sbrc	r15, 6
    1d34:	6b c1       	rjmp	.+726    	; 0x200c <vfprintf+0x3d2>
    1d36:	40 e4       	ldi	r20, 0x40	; 64
    1d38:	f4 2a       	or	r15, r20
    1d3a:	07 c0       	rjmp	.+14     	; 0x1d4a <vfprintf+0x110>
    1d3c:	9c 36       	cpi	r25, 0x6C	; 108
    1d3e:	19 f4       	brne	.+6      	; 0x1d46 <vfprintf+0x10c>
    1d40:	50 e8       	ldi	r21, 0x80	; 128
    1d42:	f5 2a       	or	r15, r21
    1d44:	02 c0       	rjmp	.+4      	; 0x1d4a <vfprintf+0x110>
    1d46:	98 36       	cpi	r25, 0x68	; 104
    1d48:	49 f4       	brne	.+18     	; 0x1d5c <vfprintf+0x122>
    1d4a:	f2 01       	movw	r30, r4
    1d4c:	23 fd       	sbrc	r18, 3
    1d4e:	95 91       	lpm	r25, Z+
    1d50:	23 ff       	sbrs	r18, 3
    1d52:	91 91       	ld	r25, Z+
    1d54:	2f 01       	movw	r4, r30
    1d56:	99 23       	and	r25, r25
    1d58:	09 f0       	breq	.+2      	; 0x1d5c <vfprintf+0x122>
    1d5a:	b8 cf       	rjmp	.-144    	; 0x1ccc <vfprintf+0x92>
    1d5c:	89 2f       	mov	r24, r25
    1d5e:	85 54       	subi	r24, 0x45	; 69
    1d60:	83 30       	cpi	r24, 0x03	; 3
    1d62:	18 f0       	brcs	.+6      	; 0x1d6a <vfprintf+0x130>
    1d64:	80 52       	subi	r24, 0x20	; 32
    1d66:	83 30       	cpi	r24, 0x03	; 3
    1d68:	38 f4       	brcc	.+14     	; 0x1d78 <vfprintf+0x13e>
    1d6a:	44 e0       	ldi	r20, 0x04	; 4
    1d6c:	50 e0       	ldi	r21, 0x00	; 0
    1d6e:	a4 0e       	add	r10, r20
    1d70:	b5 1e       	adc	r11, r21
    1d72:	5f e3       	ldi	r21, 0x3F	; 63
    1d74:	59 83       	std	Y+1, r21	; 0x01
    1d76:	0f c0       	rjmp	.+30     	; 0x1d96 <vfprintf+0x15c>
    1d78:	93 36       	cpi	r25, 0x63	; 99
    1d7a:	31 f0       	breq	.+12     	; 0x1d88 <vfprintf+0x14e>
    1d7c:	93 37       	cpi	r25, 0x73	; 115
    1d7e:	79 f0       	breq	.+30     	; 0x1d9e <vfprintf+0x164>
    1d80:	93 35       	cpi	r25, 0x53	; 83
    1d82:	09 f0       	breq	.+2      	; 0x1d86 <vfprintf+0x14c>
    1d84:	56 c0       	rjmp	.+172    	; 0x1e32 <vfprintf+0x1f8>
    1d86:	20 c0       	rjmp	.+64     	; 0x1dc8 <vfprintf+0x18e>
    1d88:	f5 01       	movw	r30, r10
    1d8a:	80 81       	ld	r24, Z
    1d8c:	89 83       	std	Y+1, r24	; 0x01
    1d8e:	42 e0       	ldi	r20, 0x02	; 2
    1d90:	50 e0       	ldi	r21, 0x00	; 0
    1d92:	a4 0e       	add	r10, r20
    1d94:	b5 1e       	adc	r11, r21
    1d96:	61 01       	movw	r12, r2
    1d98:	01 e0       	ldi	r16, 0x01	; 1
    1d9a:	10 e0       	ldi	r17, 0x00	; 0
    1d9c:	12 c0       	rjmp	.+36     	; 0x1dc2 <vfprintf+0x188>
    1d9e:	f5 01       	movw	r30, r10
    1da0:	c0 80       	ld	r12, Z
    1da2:	d1 80       	ldd	r13, Z+1	; 0x01
    1da4:	f6 fc       	sbrc	r15, 6
    1da6:	03 c0       	rjmp	.+6      	; 0x1dae <vfprintf+0x174>
    1da8:	6f ef       	ldi	r22, 0xFF	; 255
    1daa:	7f ef       	ldi	r23, 0xFF	; 255
    1dac:	02 c0       	rjmp	.+4      	; 0x1db2 <vfprintf+0x178>
    1dae:	69 2d       	mov	r22, r9
    1db0:	70 e0       	ldi	r23, 0x00	; 0
    1db2:	42 e0       	ldi	r20, 0x02	; 2
    1db4:	50 e0       	ldi	r21, 0x00	; 0
    1db6:	a4 0e       	add	r10, r20
    1db8:	b5 1e       	adc	r11, r21
    1dba:	c6 01       	movw	r24, r12
    1dbc:	0e 94 13 13 	call	0x2626	; 0x2626 <strnlen>
    1dc0:	8c 01       	movw	r16, r24
    1dc2:	5f e7       	ldi	r21, 0x7F	; 127
    1dc4:	f5 22       	and	r15, r21
    1dc6:	14 c0       	rjmp	.+40     	; 0x1df0 <vfprintf+0x1b6>
    1dc8:	f5 01       	movw	r30, r10
    1dca:	c0 80       	ld	r12, Z
    1dcc:	d1 80       	ldd	r13, Z+1	; 0x01
    1dce:	f6 fc       	sbrc	r15, 6
    1dd0:	03 c0       	rjmp	.+6      	; 0x1dd8 <vfprintf+0x19e>
    1dd2:	6f ef       	ldi	r22, 0xFF	; 255
    1dd4:	7f ef       	ldi	r23, 0xFF	; 255
    1dd6:	02 c0       	rjmp	.+4      	; 0x1ddc <vfprintf+0x1a2>
    1dd8:	69 2d       	mov	r22, r9
    1dda:	70 e0       	ldi	r23, 0x00	; 0
    1ddc:	42 e0       	ldi	r20, 0x02	; 2
    1dde:	50 e0       	ldi	r21, 0x00	; 0
    1de0:	a4 0e       	add	r10, r20
    1de2:	b5 1e       	adc	r11, r21
    1de4:	c6 01       	movw	r24, r12
    1de6:	0e 94 08 13 	call	0x2610	; 0x2610 <strnlen_P>
    1dea:	8c 01       	movw	r16, r24
    1dec:	50 e8       	ldi	r21, 0x80	; 128
    1dee:	f5 2a       	or	r15, r21
    1df0:	f3 fe       	sbrs	r15, 3
    1df2:	07 c0       	rjmp	.+14     	; 0x1e02 <vfprintf+0x1c8>
    1df4:	1a c0       	rjmp	.+52     	; 0x1e2a <vfprintf+0x1f0>
    1df6:	80 e2       	ldi	r24, 0x20	; 32
    1df8:	90 e0       	ldi	r25, 0x00	; 0
    1dfa:	b3 01       	movw	r22, r6
    1dfc:	0e 94 60 13 	call	0x26c0	; 0x26c0 <fputc>
    1e00:	ea 94       	dec	r14
    1e02:	8e 2d       	mov	r24, r14
    1e04:	90 e0       	ldi	r25, 0x00	; 0
    1e06:	08 17       	cp	r16, r24
    1e08:	19 07       	cpc	r17, r25
    1e0a:	a8 f3       	brcs	.-22     	; 0x1df6 <vfprintf+0x1bc>
    1e0c:	0e c0       	rjmp	.+28     	; 0x1e2a <vfprintf+0x1f0>
    1e0e:	f6 01       	movw	r30, r12
    1e10:	f7 fc       	sbrc	r15, 7
    1e12:	85 91       	lpm	r24, Z+
    1e14:	f7 fe       	sbrs	r15, 7
    1e16:	81 91       	ld	r24, Z+
    1e18:	6f 01       	movw	r12, r30
    1e1a:	90 e0       	ldi	r25, 0x00	; 0
    1e1c:	b3 01       	movw	r22, r6
    1e1e:	0e 94 60 13 	call	0x26c0	; 0x26c0 <fputc>
    1e22:	e1 10       	cpse	r14, r1
    1e24:	ea 94       	dec	r14
    1e26:	01 50       	subi	r16, 0x01	; 1
    1e28:	10 40       	sbci	r17, 0x00	; 0
    1e2a:	01 15       	cp	r16, r1
    1e2c:	11 05       	cpc	r17, r1
    1e2e:	79 f7       	brne	.-34     	; 0x1e0e <vfprintf+0x1d4>
    1e30:	ea c0       	rjmp	.+468    	; 0x2006 <vfprintf+0x3cc>
    1e32:	94 36       	cpi	r25, 0x64	; 100
    1e34:	11 f0       	breq	.+4      	; 0x1e3a <vfprintf+0x200>
    1e36:	99 36       	cpi	r25, 0x69	; 105
    1e38:	69 f5       	brne	.+90     	; 0x1e94 <vfprintf+0x25a>
    1e3a:	f7 fe       	sbrs	r15, 7
    1e3c:	08 c0       	rjmp	.+16     	; 0x1e4e <vfprintf+0x214>
    1e3e:	f5 01       	movw	r30, r10
    1e40:	20 81       	ld	r18, Z
    1e42:	31 81       	ldd	r19, Z+1	; 0x01
    1e44:	42 81       	ldd	r20, Z+2	; 0x02
    1e46:	53 81       	ldd	r21, Z+3	; 0x03
    1e48:	84 e0       	ldi	r24, 0x04	; 4
    1e4a:	90 e0       	ldi	r25, 0x00	; 0
    1e4c:	0a c0       	rjmp	.+20     	; 0x1e62 <vfprintf+0x228>
    1e4e:	f5 01       	movw	r30, r10
    1e50:	80 81       	ld	r24, Z
    1e52:	91 81       	ldd	r25, Z+1	; 0x01
    1e54:	9c 01       	movw	r18, r24
    1e56:	44 27       	eor	r20, r20
    1e58:	37 fd       	sbrc	r19, 7
    1e5a:	40 95       	com	r20
    1e5c:	54 2f       	mov	r21, r20
    1e5e:	82 e0       	ldi	r24, 0x02	; 2
    1e60:	90 e0       	ldi	r25, 0x00	; 0
    1e62:	a8 0e       	add	r10, r24
    1e64:	b9 1e       	adc	r11, r25
    1e66:	9f e6       	ldi	r25, 0x6F	; 111
    1e68:	f9 22       	and	r15, r25
    1e6a:	57 ff       	sbrs	r21, 7
    1e6c:	09 c0       	rjmp	.+18     	; 0x1e80 <vfprintf+0x246>
    1e6e:	50 95       	com	r21
    1e70:	40 95       	com	r20
    1e72:	30 95       	com	r19
    1e74:	21 95       	neg	r18
    1e76:	3f 4f       	sbci	r19, 0xFF	; 255
    1e78:	4f 4f       	sbci	r20, 0xFF	; 255
    1e7a:	5f 4f       	sbci	r21, 0xFF	; 255
    1e7c:	e0 e8       	ldi	r30, 0x80	; 128
    1e7e:	fe 2a       	or	r15, r30
    1e80:	ca 01       	movw	r24, r20
    1e82:	b9 01       	movw	r22, r18
    1e84:	a1 01       	movw	r20, r2
    1e86:	2a e0       	ldi	r18, 0x0A	; 10
    1e88:	30 e0       	ldi	r19, 0x00	; 0
    1e8a:	0e 94 a6 13 	call	0x274c	; 0x274c <__ultoa_invert>
    1e8e:	d8 2e       	mov	r13, r24
    1e90:	d2 18       	sub	r13, r2
    1e92:	40 c0       	rjmp	.+128    	; 0x1f14 <vfprintf+0x2da>
    1e94:	95 37       	cpi	r25, 0x75	; 117
    1e96:	29 f4       	brne	.+10     	; 0x1ea2 <vfprintf+0x268>
    1e98:	1f 2d       	mov	r17, r15
    1e9a:	1f 7e       	andi	r17, 0xEF	; 239
    1e9c:	2a e0       	ldi	r18, 0x0A	; 10
    1e9e:	30 e0       	ldi	r19, 0x00	; 0
    1ea0:	1d c0       	rjmp	.+58     	; 0x1edc <vfprintf+0x2a2>
    1ea2:	1f 2d       	mov	r17, r15
    1ea4:	19 7f       	andi	r17, 0xF9	; 249
    1ea6:	9f 36       	cpi	r25, 0x6F	; 111
    1ea8:	61 f0       	breq	.+24     	; 0x1ec2 <vfprintf+0x288>
    1eaa:	90 37       	cpi	r25, 0x70	; 112
    1eac:	20 f4       	brcc	.+8      	; 0x1eb6 <vfprintf+0x27c>
    1eae:	98 35       	cpi	r25, 0x58	; 88
    1eb0:	09 f0       	breq	.+2      	; 0x1eb4 <vfprintf+0x27a>
    1eb2:	ac c0       	rjmp	.+344    	; 0x200c <vfprintf+0x3d2>
    1eb4:	0f c0       	rjmp	.+30     	; 0x1ed4 <vfprintf+0x29a>
    1eb6:	90 37       	cpi	r25, 0x70	; 112
    1eb8:	39 f0       	breq	.+14     	; 0x1ec8 <vfprintf+0x28e>
    1eba:	98 37       	cpi	r25, 0x78	; 120
    1ebc:	09 f0       	breq	.+2      	; 0x1ec0 <vfprintf+0x286>
    1ebe:	a6 c0       	rjmp	.+332    	; 0x200c <vfprintf+0x3d2>
    1ec0:	04 c0       	rjmp	.+8      	; 0x1eca <vfprintf+0x290>
    1ec2:	28 e0       	ldi	r18, 0x08	; 8
    1ec4:	30 e0       	ldi	r19, 0x00	; 0
    1ec6:	0a c0       	rjmp	.+20     	; 0x1edc <vfprintf+0x2a2>
    1ec8:	10 61       	ori	r17, 0x10	; 16
    1eca:	14 fd       	sbrc	r17, 4
    1ecc:	14 60       	ori	r17, 0x04	; 4
    1ece:	20 e1       	ldi	r18, 0x10	; 16
    1ed0:	30 e0       	ldi	r19, 0x00	; 0
    1ed2:	04 c0       	rjmp	.+8      	; 0x1edc <vfprintf+0x2a2>
    1ed4:	14 fd       	sbrc	r17, 4
    1ed6:	16 60       	ori	r17, 0x06	; 6
    1ed8:	20 e1       	ldi	r18, 0x10	; 16
    1eda:	32 e0       	ldi	r19, 0x02	; 2
    1edc:	17 ff       	sbrs	r17, 7
    1ede:	08 c0       	rjmp	.+16     	; 0x1ef0 <vfprintf+0x2b6>
    1ee0:	f5 01       	movw	r30, r10
    1ee2:	60 81       	ld	r22, Z
    1ee4:	71 81       	ldd	r23, Z+1	; 0x01
    1ee6:	82 81       	ldd	r24, Z+2	; 0x02
    1ee8:	93 81       	ldd	r25, Z+3	; 0x03
    1eea:	44 e0       	ldi	r20, 0x04	; 4
    1eec:	50 e0       	ldi	r21, 0x00	; 0
    1eee:	08 c0       	rjmp	.+16     	; 0x1f00 <vfprintf+0x2c6>
    1ef0:	f5 01       	movw	r30, r10
    1ef2:	80 81       	ld	r24, Z
    1ef4:	91 81       	ldd	r25, Z+1	; 0x01
    1ef6:	bc 01       	movw	r22, r24
    1ef8:	80 e0       	ldi	r24, 0x00	; 0
    1efa:	90 e0       	ldi	r25, 0x00	; 0
    1efc:	42 e0       	ldi	r20, 0x02	; 2
    1efe:	50 e0       	ldi	r21, 0x00	; 0
    1f00:	a4 0e       	add	r10, r20
    1f02:	b5 1e       	adc	r11, r21
    1f04:	a1 01       	movw	r20, r2
    1f06:	0e 94 a6 13 	call	0x274c	; 0x274c <__ultoa_invert>
    1f0a:	d8 2e       	mov	r13, r24
    1f0c:	d2 18       	sub	r13, r2
    1f0e:	8f e7       	ldi	r24, 0x7F	; 127
    1f10:	f8 2e       	mov	r15, r24
    1f12:	f1 22       	and	r15, r17
    1f14:	f6 fe       	sbrs	r15, 6
    1f16:	0b c0       	rjmp	.+22     	; 0x1f2e <vfprintf+0x2f4>
    1f18:	5e ef       	ldi	r21, 0xFE	; 254
    1f1a:	f5 22       	and	r15, r21
    1f1c:	d9 14       	cp	r13, r9
    1f1e:	38 f4       	brcc	.+14     	; 0x1f2e <vfprintf+0x2f4>
    1f20:	f4 fe       	sbrs	r15, 4
    1f22:	07 c0       	rjmp	.+14     	; 0x1f32 <vfprintf+0x2f8>
    1f24:	f2 fc       	sbrc	r15, 2
    1f26:	05 c0       	rjmp	.+10     	; 0x1f32 <vfprintf+0x2f8>
    1f28:	8f ee       	ldi	r24, 0xEF	; 239
    1f2a:	f8 22       	and	r15, r24
    1f2c:	02 c0       	rjmp	.+4      	; 0x1f32 <vfprintf+0x2f8>
    1f2e:	1d 2d       	mov	r17, r13
    1f30:	01 c0       	rjmp	.+2      	; 0x1f34 <vfprintf+0x2fa>
    1f32:	19 2d       	mov	r17, r9
    1f34:	f4 fe       	sbrs	r15, 4
    1f36:	0d c0       	rjmp	.+26     	; 0x1f52 <vfprintf+0x318>
    1f38:	fe 01       	movw	r30, r28
    1f3a:	ed 0d       	add	r30, r13
    1f3c:	f1 1d       	adc	r31, r1
    1f3e:	80 81       	ld	r24, Z
    1f40:	80 33       	cpi	r24, 0x30	; 48
    1f42:	19 f4       	brne	.+6      	; 0x1f4a <vfprintf+0x310>
    1f44:	99 ee       	ldi	r25, 0xE9	; 233
    1f46:	f9 22       	and	r15, r25
    1f48:	08 c0       	rjmp	.+16     	; 0x1f5a <vfprintf+0x320>
    1f4a:	1f 5f       	subi	r17, 0xFF	; 255
    1f4c:	f2 fe       	sbrs	r15, 2
    1f4e:	05 c0       	rjmp	.+10     	; 0x1f5a <vfprintf+0x320>
    1f50:	03 c0       	rjmp	.+6      	; 0x1f58 <vfprintf+0x31e>
    1f52:	8f 2d       	mov	r24, r15
    1f54:	86 78       	andi	r24, 0x86	; 134
    1f56:	09 f0       	breq	.+2      	; 0x1f5a <vfprintf+0x320>
    1f58:	1f 5f       	subi	r17, 0xFF	; 255
    1f5a:	0f 2d       	mov	r16, r15
    1f5c:	f3 fc       	sbrc	r15, 3
    1f5e:	14 c0       	rjmp	.+40     	; 0x1f88 <vfprintf+0x34e>
    1f60:	f0 fe       	sbrs	r15, 0
    1f62:	0f c0       	rjmp	.+30     	; 0x1f82 <vfprintf+0x348>
    1f64:	1e 15       	cp	r17, r14
    1f66:	10 f0       	brcs	.+4      	; 0x1f6c <vfprintf+0x332>
    1f68:	9d 2c       	mov	r9, r13
    1f6a:	0b c0       	rjmp	.+22     	; 0x1f82 <vfprintf+0x348>
    1f6c:	9d 2c       	mov	r9, r13
    1f6e:	9e 0c       	add	r9, r14
    1f70:	91 1a       	sub	r9, r17
    1f72:	1e 2d       	mov	r17, r14
    1f74:	06 c0       	rjmp	.+12     	; 0x1f82 <vfprintf+0x348>
    1f76:	80 e2       	ldi	r24, 0x20	; 32
    1f78:	90 e0       	ldi	r25, 0x00	; 0
    1f7a:	b3 01       	movw	r22, r6
    1f7c:	0e 94 60 13 	call	0x26c0	; 0x26c0 <fputc>
    1f80:	1f 5f       	subi	r17, 0xFF	; 255
    1f82:	1e 15       	cp	r17, r14
    1f84:	c0 f3       	brcs	.-16     	; 0x1f76 <vfprintf+0x33c>
    1f86:	04 c0       	rjmp	.+8      	; 0x1f90 <vfprintf+0x356>
    1f88:	1e 15       	cp	r17, r14
    1f8a:	10 f4       	brcc	.+4      	; 0x1f90 <vfprintf+0x356>
    1f8c:	e1 1a       	sub	r14, r17
    1f8e:	01 c0       	rjmp	.+2      	; 0x1f92 <vfprintf+0x358>
    1f90:	ee 24       	eor	r14, r14
    1f92:	04 ff       	sbrs	r16, 4
    1f94:	0f c0       	rjmp	.+30     	; 0x1fb4 <vfprintf+0x37a>
    1f96:	80 e3       	ldi	r24, 0x30	; 48
    1f98:	90 e0       	ldi	r25, 0x00	; 0
    1f9a:	b3 01       	movw	r22, r6
    1f9c:	0e 94 60 13 	call	0x26c0	; 0x26c0 <fputc>
    1fa0:	02 ff       	sbrs	r16, 2
    1fa2:	1d c0       	rjmp	.+58     	; 0x1fde <vfprintf+0x3a4>
    1fa4:	01 fd       	sbrc	r16, 1
    1fa6:	03 c0       	rjmp	.+6      	; 0x1fae <vfprintf+0x374>
    1fa8:	88 e7       	ldi	r24, 0x78	; 120
    1faa:	90 e0       	ldi	r25, 0x00	; 0
    1fac:	0e c0       	rjmp	.+28     	; 0x1fca <vfprintf+0x390>
    1fae:	88 e5       	ldi	r24, 0x58	; 88
    1fb0:	90 e0       	ldi	r25, 0x00	; 0
    1fb2:	0b c0       	rjmp	.+22     	; 0x1fca <vfprintf+0x390>
    1fb4:	80 2f       	mov	r24, r16
    1fb6:	86 78       	andi	r24, 0x86	; 134
    1fb8:	91 f0       	breq	.+36     	; 0x1fde <vfprintf+0x3a4>
    1fba:	01 ff       	sbrs	r16, 1
    1fbc:	02 c0       	rjmp	.+4      	; 0x1fc2 <vfprintf+0x388>
    1fbe:	8b e2       	ldi	r24, 0x2B	; 43
    1fc0:	01 c0       	rjmp	.+2      	; 0x1fc4 <vfprintf+0x38a>
    1fc2:	80 e2       	ldi	r24, 0x20	; 32
    1fc4:	f7 fc       	sbrc	r15, 7
    1fc6:	8d e2       	ldi	r24, 0x2D	; 45
    1fc8:	90 e0       	ldi	r25, 0x00	; 0
    1fca:	b3 01       	movw	r22, r6
    1fcc:	0e 94 60 13 	call	0x26c0	; 0x26c0 <fputc>
    1fd0:	06 c0       	rjmp	.+12     	; 0x1fde <vfprintf+0x3a4>
    1fd2:	80 e3       	ldi	r24, 0x30	; 48
    1fd4:	90 e0       	ldi	r25, 0x00	; 0
    1fd6:	b3 01       	movw	r22, r6
    1fd8:	0e 94 60 13 	call	0x26c0	; 0x26c0 <fputc>
    1fdc:	9a 94       	dec	r9
    1fde:	d9 14       	cp	r13, r9
    1fe0:	c0 f3       	brcs	.-16     	; 0x1fd2 <vfprintf+0x398>
    1fe2:	da 94       	dec	r13
    1fe4:	f1 01       	movw	r30, r2
    1fe6:	ed 0d       	add	r30, r13
    1fe8:	f1 1d       	adc	r31, r1
    1fea:	80 81       	ld	r24, Z
    1fec:	90 e0       	ldi	r25, 0x00	; 0
    1fee:	b3 01       	movw	r22, r6
    1ff0:	0e 94 60 13 	call	0x26c0	; 0x26c0 <fputc>
    1ff4:	dd 20       	and	r13, r13
    1ff6:	a9 f7       	brne	.-22     	; 0x1fe2 <vfprintf+0x3a8>
    1ff8:	06 c0       	rjmp	.+12     	; 0x2006 <vfprintf+0x3cc>
    1ffa:	80 e2       	ldi	r24, 0x20	; 32
    1ffc:	90 e0       	ldi	r25, 0x00	; 0
    1ffe:	b3 01       	movw	r22, r6
    2000:	0e 94 60 13 	call	0x26c0	; 0x26c0 <fputc>
    2004:	ea 94       	dec	r14
    2006:	ee 20       	and	r14, r14
    2008:	c1 f7       	brne	.-16     	; 0x1ffa <vfprintf+0x3c0>
    200a:	43 ce       	rjmp	.-890    	; 0x1c92 <vfprintf+0x58>
    200c:	f3 01       	movw	r30, r6
    200e:	66 81       	ldd	r22, Z+6	; 0x06
    2010:	77 81       	ldd	r23, Z+7	; 0x07
    2012:	cb 01       	movw	r24, r22
    2014:	2b 96       	adiw	r28, 0x0b	; 11
    2016:	0f b6       	in	r0, 0x3f	; 63
    2018:	f8 94       	cli
    201a:	de bf       	out	0x3e, r29	; 62
    201c:	0f be       	out	0x3f, r0	; 63
    201e:	cd bf       	out	0x3d, r28	; 61
    2020:	cf 91       	pop	r28
    2022:	df 91       	pop	r29
    2024:	1f 91       	pop	r17
    2026:	0f 91       	pop	r16
    2028:	ff 90       	pop	r15
    202a:	ef 90       	pop	r14
    202c:	df 90       	pop	r13
    202e:	cf 90       	pop	r12
    2030:	bf 90       	pop	r11
    2032:	af 90       	pop	r10
    2034:	9f 90       	pop	r9
    2036:	8f 90       	pop	r8
    2038:	7f 90       	pop	r7
    203a:	6f 90       	pop	r6
    203c:	5f 90       	pop	r5
    203e:	4f 90       	pop	r4
    2040:	3f 90       	pop	r3
    2042:	2f 90       	pop	r2
    2044:	08 95       	ret

00002046 <putval>:
    2046:	fc 01       	movw	r30, r24
    2048:	20 fd       	sbrc	r18, 0
    204a:	08 c0       	rjmp	.+16     	; 0x205c <putval+0x16>
    204c:	23 fd       	sbrc	r18, 3
    204e:	05 c0       	rjmp	.+10     	; 0x205a <putval+0x14>
    2050:	22 ff       	sbrs	r18, 2
    2052:	02 c0       	rjmp	.+4      	; 0x2058 <putval+0x12>
    2054:	73 83       	std	Z+3, r23	; 0x03
    2056:	62 83       	std	Z+2, r22	; 0x02
    2058:	51 83       	std	Z+1, r21	; 0x01
    205a:	40 83       	st	Z, r20
    205c:	08 95       	ret

0000205e <mulacc>:
    205e:	ef 92       	push	r14
    2060:	ff 92       	push	r15
    2062:	0f 93       	push	r16
    2064:	1f 93       	push	r17
    2066:	44 ff       	sbrs	r20, 4
    2068:	02 c0       	rjmp	.+4      	; 0x206e <mulacc+0x10>
    206a:	33 e0       	ldi	r19, 0x03	; 3
    206c:	11 c0       	rjmp	.+34     	; 0x2090 <mulacc+0x32>
    206e:	46 ff       	sbrs	r20, 6
    2070:	02 c0       	rjmp	.+4      	; 0x2076 <mulacc+0x18>
    2072:	34 e0       	ldi	r19, 0x04	; 4
    2074:	0d c0       	rjmp	.+26     	; 0x2090 <mulacc+0x32>
    2076:	db 01       	movw	r26, r22
    2078:	fc 01       	movw	r30, r24
    207a:	aa 0f       	add	r26, r26
    207c:	bb 1f       	adc	r27, r27
    207e:	ee 1f       	adc	r30, r30
    2080:	ff 1f       	adc	r31, r31
    2082:	10 94       	com	r1
    2084:	d1 f7       	brne	.-12     	; 0x207a <mulacc+0x1c>
    2086:	6a 0f       	add	r22, r26
    2088:	7b 1f       	adc	r23, r27
    208a:	8e 1f       	adc	r24, r30
    208c:	9f 1f       	adc	r25, r31
    208e:	31 e0       	ldi	r19, 0x01	; 1
    2090:	66 0f       	add	r22, r22
    2092:	77 1f       	adc	r23, r23
    2094:	88 1f       	adc	r24, r24
    2096:	99 1f       	adc	r25, r25
    2098:	31 50       	subi	r19, 0x01	; 1
    209a:	d1 f7       	brne	.-12     	; 0x2090 <mulacc+0x32>
    209c:	7b 01       	movw	r14, r22
    209e:	8c 01       	movw	r16, r24
    20a0:	e2 0e       	add	r14, r18
    20a2:	f1 1c       	adc	r15, r1
    20a4:	01 1d       	adc	r16, r1
    20a6:	11 1d       	adc	r17, r1
    20a8:	a8 01       	movw	r20, r16
    20aa:	97 01       	movw	r18, r14
    20ac:	b7 01       	movw	r22, r14
    20ae:	ca 01       	movw	r24, r20
    20b0:	1f 91       	pop	r17
    20b2:	0f 91       	pop	r16
    20b4:	ff 90       	pop	r15
    20b6:	ef 90       	pop	r14
    20b8:	08 95       	ret

000020ba <skip_spaces>:
    20ba:	0f 93       	push	r16
    20bc:	1f 93       	push	r17
    20be:	cf 93       	push	r28
    20c0:	df 93       	push	r29
    20c2:	8c 01       	movw	r16, r24
    20c4:	c8 01       	movw	r24, r16
    20c6:	0e 94 1e 13 	call	0x263c	; 0x263c <fgetc>
    20ca:	ec 01       	movw	r28, r24
    20cc:	97 fd       	sbrc	r25, 7
    20ce:	08 c0       	rjmp	.+16     	; 0x20e0 <skip_spaces+0x26>
    20d0:	0e 94 f5 12 	call	0x25ea	; 0x25ea <isspace>
    20d4:	89 2b       	or	r24, r25
    20d6:	b1 f7       	brne	.-20     	; 0x20c4 <skip_spaces+0xa>
    20d8:	ce 01       	movw	r24, r28
    20da:	b8 01       	movw	r22, r16
    20dc:	0e 94 8c 13 	call	0x2718	; 0x2718 <ungetc>
    20e0:	ce 01       	movw	r24, r28
    20e2:	df 91       	pop	r29
    20e4:	cf 91       	pop	r28
    20e6:	1f 91       	pop	r17
    20e8:	0f 91       	pop	r16
    20ea:	08 95       	ret

000020ec <conv_int>:
    20ec:	af 92       	push	r10
    20ee:	bf 92       	push	r11
    20f0:	cf 92       	push	r12
    20f2:	df 92       	push	r13
    20f4:	ef 92       	push	r14
    20f6:	ff 92       	push	r15
    20f8:	0f 93       	push	r16
    20fa:	1f 93       	push	r17
    20fc:	cf 93       	push	r28
    20fe:	df 93       	push	r29
    2100:	ec 01       	movw	r28, r24
    2102:	c6 2e       	mov	r12, r22
    2104:	5a 01       	movw	r10, r20
    2106:	12 2f       	mov	r17, r18
    2108:	0e 94 1e 13 	call	0x263c	; 0x263c <fgetc>
    210c:	ac 01       	movw	r20, r24
    210e:	8b 32       	cpi	r24, 0x2B	; 43
    2110:	19 f0       	breq	.+6      	; 0x2118 <conv_int+0x2c>
    2112:	8d 32       	cpi	r24, 0x2D	; 45
    2114:	51 f4       	brne	.+20     	; 0x212a <conv_int+0x3e>
    2116:	10 68       	ori	r17, 0x80	; 128
    2118:	ca 94       	dec	r12
    211a:	09 f4       	brne	.+2      	; 0x211e <conv_int+0x32>
    211c:	6d c0       	rjmp	.+218    	; 0x21f8 <conv_int+0x10c>
    211e:	ce 01       	movw	r24, r28
    2120:	0e 94 1e 13 	call	0x263c	; 0x263c <fgetc>
    2124:	ac 01       	movw	r20, r24
    2126:	97 fd       	sbrc	r25, 7
    2128:	67 c0       	rjmp	.+206    	; 0x21f8 <conv_int+0x10c>
    212a:	6d ef       	ldi	r22, 0xFD	; 253
    212c:	d6 2e       	mov	r13, r22
    212e:	d1 22       	and	r13, r17
    2130:	8d 2d       	mov	r24, r13
    2132:	80 73       	andi	r24, 0x30	; 48
    2134:	01 f5       	brne	.+64     	; 0x2176 <conv_int+0x8a>
    2136:	40 33       	cpi	r20, 0x30	; 48
    2138:	f1 f4       	brne	.+60     	; 0x2176 <conv_int+0x8a>
    213a:	ca 94       	dec	r12
    213c:	09 f4       	brne	.+2      	; 0x2140 <conv_int+0x54>
    213e:	47 c0       	rjmp	.+142    	; 0x21ce <conv_int+0xe2>
    2140:	ce 01       	movw	r24, r28
    2142:	0e 94 1e 13 	call	0x263c	; 0x263c <fgetc>
    2146:	ac 01       	movw	r20, r24
    2148:	97 fd       	sbrc	r25, 7
    214a:	41 c0       	rjmp	.+130    	; 0x21ce <conv_int+0xe2>
    214c:	82 e0       	ldi	r24, 0x02	; 2
    214e:	d8 2a       	or	r13, r24
    2150:	48 37       	cpi	r20, 0x78	; 120
    2152:	11 f0       	breq	.+4      	; 0x2158 <conv_int+0x6c>
    2154:	48 35       	cpi	r20, 0x58	; 88
    2156:	59 f4       	brne	.+22     	; 0x216e <conv_int+0x82>
    2158:	80 e4       	ldi	r24, 0x40	; 64
    215a:	d8 2a       	or	r13, r24
    215c:	ca 94       	dec	r12
    215e:	b9 f1       	breq	.+110    	; 0x21ce <conv_int+0xe2>
    2160:	ce 01       	movw	r24, r28
    2162:	0e 94 1e 13 	call	0x263c	; 0x263c <fgetc>
    2166:	ac 01       	movw	r20, r24
    2168:	99 23       	and	r25, r25
    216a:	2c f4       	brge	.+10     	; 0x2176 <conv_int+0x8a>
    216c:	30 c0       	rjmp	.+96     	; 0x21ce <conv_int+0xe2>
    216e:	d6 fc       	sbrc	r13, 6
    2170:	02 c0       	rjmp	.+4      	; 0x2176 <conv_int+0x8a>
    2172:	80 e1       	ldi	r24, 0x10	; 16
    2174:	d8 2a       	or	r13, r24
    2176:	ee 24       	eor	r14, r14
    2178:	ff 24       	eor	r15, r15
    217a:	87 01       	movw	r16, r14
    217c:	24 2f       	mov	r18, r20
    217e:	20 53       	subi	r18, 0x30	; 48
    2180:	28 30       	cpi	r18, 0x08	; 8
    2182:	88 f0       	brcs	.+34     	; 0x21a6 <conv_int+0xba>
    2184:	d4 fc       	sbrc	r13, 4
    2186:	09 c0       	rjmp	.+18     	; 0x219a <conv_int+0xae>
    2188:	2a 30       	cpi	r18, 0x0A	; 10
    218a:	68 f0       	brcs	.+26     	; 0x21a6 <conv_int+0xba>
    218c:	d6 fe       	sbrs	r13, 6
    218e:	05 c0       	rjmp	.+10     	; 0x219a <conv_int+0xae>
    2190:	2f 7d       	andi	r18, 0xDF	; 223
    2192:	82 2f       	mov	r24, r18
    2194:	81 51       	subi	r24, 0x11	; 17
    2196:	86 30       	cpi	r24, 0x06	; 6
    2198:	28 f0       	brcs	.+10     	; 0x21a4 <conv_int+0xb8>
    219a:	ca 01       	movw	r24, r20
    219c:	be 01       	movw	r22, r28
    219e:	0e 94 8c 13 	call	0x2718	; 0x2718 <ungetc>
    21a2:	12 c0       	rjmp	.+36     	; 0x21c8 <conv_int+0xdc>
    21a4:	27 50       	subi	r18, 0x07	; 7
    21a6:	c8 01       	movw	r24, r16
    21a8:	b7 01       	movw	r22, r14
    21aa:	4d 2d       	mov	r20, r13
    21ac:	0e 94 2f 10 	call	0x205e	; 0x205e <mulacc>
    21b0:	7b 01       	movw	r14, r22
    21b2:	8c 01       	movw	r16, r24
    21b4:	82 e0       	ldi	r24, 0x02	; 2
    21b6:	d8 2a       	or	r13, r24
    21b8:	ca 94       	dec	r12
    21ba:	61 f0       	breq	.+24     	; 0x21d4 <conv_int+0xe8>
    21bc:	ce 01       	movw	r24, r28
    21be:	0e 94 1e 13 	call	0x263c	; 0x263c <fgetc>
    21c2:	ac 01       	movw	r20, r24
    21c4:	97 ff       	sbrs	r25, 7
    21c6:	da cf       	rjmp	.-76     	; 0x217c <conv_int+0x90>
    21c8:	d1 fc       	sbrc	r13, 1
    21ca:	04 c0       	rjmp	.+8      	; 0x21d4 <conv_int+0xe8>
    21cc:	15 c0       	rjmp	.+42     	; 0x21f8 <conv_int+0x10c>
    21ce:	ee 24       	eor	r14, r14
    21d0:	ff 24       	eor	r15, r15
    21d2:	87 01       	movw	r16, r14
    21d4:	d7 fe       	sbrs	r13, 7
    21d6:	08 c0       	rjmp	.+16     	; 0x21e8 <conv_int+0xfc>
    21d8:	10 95       	com	r17
    21da:	00 95       	com	r16
    21dc:	f0 94       	com	r15
    21de:	e0 94       	com	r14
    21e0:	e1 1c       	adc	r14, r1
    21e2:	f1 1c       	adc	r15, r1
    21e4:	01 1d       	adc	r16, r1
    21e6:	11 1d       	adc	r17, r1
    21e8:	c5 01       	movw	r24, r10
    21ea:	b8 01       	movw	r22, r16
    21ec:	a7 01       	movw	r20, r14
    21ee:	2d 2d       	mov	r18, r13
    21f0:	0e 94 23 10 	call	0x2046	; 0x2046 <putval>
    21f4:	81 e0       	ldi	r24, 0x01	; 1
    21f6:	01 c0       	rjmp	.+2      	; 0x21fa <conv_int+0x10e>
    21f8:	80 e0       	ldi	r24, 0x00	; 0
    21fa:	df 91       	pop	r29
    21fc:	cf 91       	pop	r28
    21fe:	1f 91       	pop	r17
    2200:	0f 91       	pop	r16
    2202:	ff 90       	pop	r15
    2204:	ef 90       	pop	r14
    2206:	df 90       	pop	r13
    2208:	cf 90       	pop	r12
    220a:	bf 90       	pop	r11
    220c:	af 90       	pop	r10
    220e:	08 95       	ret

00002210 <conv_brk>:
    2210:	6f 92       	push	r6
    2212:	7f 92       	push	r7
    2214:	8f 92       	push	r8
    2216:	9f 92       	push	r9
    2218:	af 92       	push	r10
    221a:	bf 92       	push	r11
    221c:	cf 92       	push	r12
    221e:	df 92       	push	r13
    2220:	ef 92       	push	r14
    2222:	ff 92       	push	r15
    2224:	0f 93       	push	r16
    2226:	1f 93       	push	r17
    2228:	df 93       	push	r29
    222a:	cf 93       	push	r28
    222c:	cd b7       	in	r28, 0x3d	; 61
    222e:	de b7       	in	r29, 0x3e	; 62
    2230:	a0 97       	sbiw	r28, 0x20	; 32
    2232:	0f b6       	in	r0, 0x3f	; 63
    2234:	f8 94       	cli
    2236:	de bf       	out	0x3e, r29	; 62
    2238:	0f be       	out	0x3f, r0	; 63
    223a:	cd bf       	out	0x3d, r28	; 61
    223c:	6c 01       	movw	r12, r24
    223e:	a6 2e       	mov	r10, r22
    2240:	8a 01       	movw	r16, r20
    2242:	79 01       	movw	r14, r18
    2244:	fe 01       	movw	r30, r28
    2246:	31 96       	adiw	r30, 0x01	; 1
    2248:	80 e2       	ldi	r24, 0x20	; 32
    224a:	df 01       	movw	r26, r30
    224c:	1d 92       	st	X+, r1
    224e:	8a 95       	dec	r24
    2250:	e9 f7       	brne	.-6      	; 0x224c <conv_brk+0x3c>
    2252:	70 e0       	ldi	r23, 0x00	; 0
    2254:	30 e0       	ldi	r19, 0x00	; 0
    2256:	60 e0       	ldi	r22, 0x00	; 0
    2258:	40 e0       	ldi	r20, 0x00	; 0
    225a:	50 e0       	ldi	r21, 0x00	; 0
    225c:	4f 01       	movw	r8, r30
    225e:	a1 e0       	ldi	r26, 0x01	; 1
    2260:	b0 e0       	ldi	r27, 0x00	; 0
    2262:	f6 01       	movw	r30, r12
    2264:	83 81       	ldd	r24, Z+3	; 0x03
    2266:	f7 01       	movw	r30, r14
    2268:	83 fd       	sbrc	r24, 3
    226a:	25 91       	lpm	r18, Z+
    226c:	83 ff       	sbrs	r24, 3
    226e:	21 91       	ld	r18, Z+
    2270:	7f 01       	movw	r14, r30
    2272:	22 23       	and	r18, r18
    2274:	09 f4       	brne	.+2      	; 0x2278 <conv_brk+0x68>
    2276:	7e c0       	rjmp	.+252    	; 0x2374 <conv_brk+0x164>
    2278:	2e 35       	cpi	r18, 0x5E	; 94
    227a:	19 f4       	brne	.+6      	; 0x2282 <conv_brk+0x72>
    227c:	41 15       	cp	r20, r1
    227e:	51 05       	cpc	r21, r1
    2280:	69 f1       	breq	.+90     	; 0x22dc <conv_brk+0xcc>
    2282:	87 2f       	mov	r24, r23
    2284:	90 e0       	ldi	r25, 0x00	; 0
    2286:	84 17       	cp	r24, r20
    2288:	95 07       	cpc	r25, r21
    228a:	44 f4       	brge	.+16     	; 0x229c <conv_brk+0x8c>
    228c:	2d 35       	cpi	r18, 0x5D	; 93
    228e:	51 f1       	breq	.+84     	; 0x22e4 <conv_brk+0xd4>
    2290:	2d 32       	cpi	r18, 0x2D	; 45
    2292:	21 f4       	brne	.+8      	; 0x229c <conv_brk+0x8c>
    2294:	33 23       	and	r19, r19
    2296:	29 f4       	brne	.+10     	; 0x22a2 <conv_brk+0x92>
    2298:	31 e0       	ldi	r19, 0x01	; 1
    229a:	21 c0       	rjmp	.+66     	; 0x22de <conv_brk+0xce>
    229c:	33 23       	and	r19, r19
    229e:	09 f4       	brne	.+2      	; 0x22a2 <conv_brk+0x92>
    22a0:	62 2f       	mov	r22, r18
    22a2:	32 2f       	mov	r19, r18
    22a4:	83 2f       	mov	r24, r19
    22a6:	86 95       	lsr	r24
    22a8:	86 95       	lsr	r24
    22aa:	86 95       	lsr	r24
    22ac:	f4 01       	movw	r30, r8
    22ae:	e8 0f       	add	r30, r24
    22b0:	f1 1d       	adc	r31, r1
    22b2:	83 2f       	mov	r24, r19
    22b4:	87 70       	andi	r24, 0x07	; 7
    22b6:	3d 01       	movw	r6, r26
    22b8:	02 c0       	rjmp	.+4      	; 0x22be <conv_brk+0xae>
    22ba:	66 0c       	add	r6, r6
    22bc:	77 1c       	adc	r7, r7
    22be:	8a 95       	dec	r24
    22c0:	e2 f7       	brpl	.-8      	; 0x22ba <conv_brk+0xaa>
    22c2:	20 81       	ld	r18, Z
    22c4:	26 29       	or	r18, r6
    22c6:	20 83       	st	Z, r18
    22c8:	36 17       	cp	r19, r22
    22ca:	11 f4       	brne	.+4      	; 0x22d0 <conv_brk+0xc0>
    22cc:	30 e0       	ldi	r19, 0x00	; 0
    22ce:	07 c0       	rjmp	.+14     	; 0x22de <conv_brk+0xce>
    22d0:	36 17       	cp	r19, r22
    22d2:	10 f4       	brcc	.+4      	; 0x22d8 <conv_brk+0xc8>
    22d4:	3f 5f       	subi	r19, 0xFF	; 255
    22d6:	e6 cf       	rjmp	.-52     	; 0x22a4 <conv_brk+0x94>
    22d8:	31 50       	subi	r19, 0x01	; 1
    22da:	e4 cf       	rjmp	.-56     	; 0x22a4 <conv_brk+0x94>
    22dc:	71 e0       	ldi	r23, 0x01	; 1
    22de:	4f 5f       	subi	r20, 0xFF	; 255
    22e0:	5f 4f       	sbci	r21, 0xFF	; 255
    22e2:	bf cf       	rjmp	.-130    	; 0x2262 <conv_brk+0x52>
    22e4:	33 23       	and	r19, r19
    22e6:	19 f0       	breq	.+6      	; 0x22ee <conv_brk+0xde>
    22e8:	8e 81       	ldd	r24, Y+6	; 0x06
    22ea:	80 62       	ori	r24, 0x20	; 32
    22ec:	8e 83       	std	Y+6, r24	; 0x06
    22ee:	77 23       	and	r23, r23
    22f0:	59 f0       	breq	.+22     	; 0x2308 <conv_brk+0xf8>
    22f2:	fe 01       	movw	r30, r28
    22f4:	31 96       	adiw	r30, 0x01	; 1
    22f6:	9e 01       	movw	r18, r28
    22f8:	2f 5d       	subi	r18, 0xDF	; 223
    22fa:	3f 4f       	sbci	r19, 0xFF	; 255
    22fc:	80 81       	ld	r24, Z
    22fe:	80 95       	com	r24
    2300:	81 93       	st	Z+, r24
    2302:	e2 17       	cp	r30, r18
    2304:	f3 07       	cpc	r31, r19
    2306:	d1 f7       	brne	.-12     	; 0x22fc <conv_brk+0xec>
    2308:	bb 24       	eor	r11, r11
    230a:	b3 94       	inc	r11
    230c:	4e 01       	movw	r8, r28
    230e:	08 94       	sec
    2310:	81 1c       	adc	r8, r1
    2312:	91 1c       	adc	r9, r1
    2314:	c6 01       	movw	r24, r12
    2316:	0e 94 1e 13 	call	0x263c	; 0x263c <fgetc>
    231a:	ac 01       	movw	r20, r24
    231c:	97 fd       	sbrc	r25, 7
    231e:	22 c0       	rjmp	.+68     	; 0x2364 <conv_brk+0x154>
    2320:	86 95       	lsr	r24
    2322:	86 95       	lsr	r24
    2324:	86 95       	lsr	r24
    2326:	f4 01       	movw	r30, r8
    2328:	e8 0f       	add	r30, r24
    232a:	f1 1d       	adc	r31, r1
    232c:	80 81       	ld	r24, Z
    232e:	90 e0       	ldi	r25, 0x00	; 0
    2330:	9a 01       	movw	r18, r20
    2332:	27 70       	andi	r18, 0x07	; 7
    2334:	30 70       	andi	r19, 0x00	; 0
    2336:	02 c0       	rjmp	.+4      	; 0x233c <conv_brk+0x12c>
    2338:	95 95       	asr	r25
    233a:	87 95       	ror	r24
    233c:	2a 95       	dec	r18
    233e:	e2 f7       	brpl	.-8      	; 0x2338 <conv_brk+0x128>
    2340:	80 fd       	sbrc	r24, 0
    2342:	05 c0       	rjmp	.+10     	; 0x234e <conv_brk+0x13e>
    2344:	ca 01       	movw	r24, r20
    2346:	b6 01       	movw	r22, r12
    2348:	0e 94 8c 13 	call	0x2718	; 0x2718 <ungetc>
    234c:	0b c0       	rjmp	.+22     	; 0x2364 <conv_brk+0x154>
    234e:	01 15       	cp	r16, r1
    2350:	11 05       	cpc	r17, r1
    2352:	19 f0       	breq	.+6      	; 0x235a <conv_brk+0x14a>
    2354:	d8 01       	movw	r26, r16
    2356:	4d 93       	st	X+, r20
    2358:	8d 01       	movw	r16, r26
    235a:	aa 94       	dec	r10
    235c:	bb 24       	eor	r11, r11
    235e:	aa 20       	and	r10, r10
    2360:	c9 f6       	brne	.-78     	; 0x2314 <conv_brk+0x104>
    2362:	02 c0       	rjmp	.+4      	; 0x2368 <conv_brk+0x158>
    2364:	bb 20       	and	r11, r11
    2366:	31 f4       	brne	.+12     	; 0x2374 <conv_brk+0x164>
    2368:	01 15       	cp	r16, r1
    236a:	11 05       	cpc	r17, r1
    236c:	29 f0       	breq	.+10     	; 0x2378 <conv_brk+0x168>
    236e:	f8 01       	movw	r30, r16
    2370:	10 82       	st	Z, r1
    2372:	02 c0       	rjmp	.+4      	; 0x2378 <conv_brk+0x168>
    2374:	ee 24       	eor	r14, r14
    2376:	ff 24       	eor	r15, r15
    2378:	c7 01       	movw	r24, r14
    237a:	a0 96       	adiw	r28, 0x20	; 32
    237c:	0f b6       	in	r0, 0x3f	; 63
    237e:	f8 94       	cli
    2380:	de bf       	out	0x3e, r29	; 62
    2382:	0f be       	out	0x3f, r0	; 63
    2384:	cd bf       	out	0x3d, r28	; 61
    2386:	cf 91       	pop	r28
    2388:	df 91       	pop	r29
    238a:	1f 91       	pop	r17
    238c:	0f 91       	pop	r16
    238e:	ff 90       	pop	r15
    2390:	ef 90       	pop	r14
    2392:	df 90       	pop	r13
    2394:	cf 90       	pop	r12
    2396:	bf 90       	pop	r11
    2398:	af 90       	pop	r10
    239a:	9f 90       	pop	r9
    239c:	8f 90       	pop	r8
    239e:	7f 90       	pop	r7
    23a0:	6f 90       	pop	r6
    23a2:	08 95       	ret

000023a4 <vfscanf>:
    23a4:	6f 92       	push	r6
    23a6:	7f 92       	push	r7
    23a8:	8f 92       	push	r8
    23aa:	9f 92       	push	r9
    23ac:	af 92       	push	r10
    23ae:	bf 92       	push	r11
    23b0:	cf 92       	push	r12
    23b2:	df 92       	push	r13
    23b4:	ef 92       	push	r14
    23b6:	ff 92       	push	r15
    23b8:	0f 93       	push	r16
    23ba:	1f 93       	push	r17
    23bc:	cf 93       	push	r28
    23be:	df 93       	push	r29
    23c0:	5c 01       	movw	r10, r24
    23c2:	6b 01       	movw	r12, r22
    23c4:	3a 01       	movw	r6, r20
    23c6:	fc 01       	movw	r30, r24
    23c8:	17 82       	std	Z+7, r1	; 0x07
    23ca:	16 82       	std	Z+6, r1	; 0x06
    23cc:	88 24       	eor	r8, r8
    23ce:	ea c0       	rjmp	.+468    	; 0x25a4 <vfscanf+0x200>
    23d0:	81 2f       	mov	r24, r17
    23d2:	90 e0       	ldi	r25, 0x00	; 0
    23d4:	0e 94 f5 12 	call	0x25ea	; 0x25ea <isspace>
    23d8:	89 2b       	or	r24, r25
    23da:	21 f0       	breq	.+8      	; 0x23e4 <vfscanf+0x40>
    23dc:	c5 01       	movw	r24, r10
    23de:	0e 94 5d 10 	call	0x20ba	; 0x20ba <skip_spaces>
    23e2:	e0 c0       	rjmp	.+448    	; 0x25a4 <vfscanf+0x200>
    23e4:	15 32       	cpi	r17, 0x25	; 37
    23e6:	49 f4       	brne	.+18     	; 0x23fa <vfscanf+0x56>
    23e8:	f6 01       	movw	r30, r12
    23ea:	f3 fc       	sbrc	r15, 3
    23ec:	65 91       	lpm	r22, Z+
    23ee:	f3 fe       	sbrs	r15, 3
    23f0:	61 91       	ld	r22, Z+
    23f2:	6f 01       	movw	r12, r30
    23f4:	65 32       	cpi	r22, 0x25	; 37
    23f6:	69 f4       	brne	.+26     	; 0x2412 <vfscanf+0x6e>
    23f8:	15 e2       	ldi	r17, 0x25	; 37
    23fa:	c5 01       	movw	r24, r10
    23fc:	0e 94 1e 13 	call	0x263c	; 0x263c <fgetc>
    2400:	97 fd       	sbrc	r25, 7
    2402:	dc c0       	rjmp	.+440    	; 0x25bc <vfscanf+0x218>
    2404:	18 17       	cp	r17, r24
    2406:	09 f4       	brne	.+2      	; 0x240a <vfscanf+0x66>
    2408:	cd c0       	rjmp	.+410    	; 0x25a4 <vfscanf+0x200>
    240a:	b5 01       	movw	r22, r10
    240c:	0e 94 8c 13 	call	0x2718	; 0x2718 <ungetc>
    2410:	da c0       	rjmp	.+436    	; 0x25c6 <vfscanf+0x222>
    2412:	6a 32       	cpi	r22, 0x2A	; 42
    2414:	19 f0       	breq	.+6      	; 0x241c <vfscanf+0x78>
    2416:	16 2f       	mov	r17, r22
    2418:	00 e0       	ldi	r16, 0x00	; 0
    241a:	06 c0       	rjmp	.+12     	; 0x2428 <vfscanf+0x84>
    241c:	f3 fc       	sbrc	r15, 3
    241e:	15 91       	lpm	r17, Z+
    2420:	f3 fe       	sbrs	r15, 3
    2422:	11 91       	ld	r17, Z+
    2424:	6f 01       	movw	r12, r30
    2426:	01 e0       	ldi	r16, 0x01	; 1
    2428:	99 24       	eor	r9, r9
    242a:	0f c0       	rjmp	.+30     	; 0x244a <vfscanf+0xa6>
    242c:	02 60       	ori	r16, 0x02	; 2
    242e:	69 2d       	mov	r22, r9
    2430:	70 e0       	ldi	r23, 0x00	; 0
    2432:	80 e0       	ldi	r24, 0x00	; 0
    2434:	90 e0       	ldi	r25, 0x00	; 0
    2436:	40 e2       	ldi	r20, 0x20	; 32
    2438:	0e 94 2f 10 	call	0x205e	; 0x205e <mulacc>
    243c:	96 2e       	mov	r9, r22
    243e:	f6 01       	movw	r30, r12
    2440:	f3 fc       	sbrc	r15, 3
    2442:	15 91       	lpm	r17, Z+
    2444:	f3 fe       	sbrs	r15, 3
    2446:	11 91       	ld	r17, Z+
    2448:	6f 01       	movw	r12, r30
    244a:	21 2f       	mov	r18, r17
    244c:	20 53       	subi	r18, 0x30	; 48
    244e:	2a 30       	cpi	r18, 0x0A	; 10
    2450:	68 f3       	brcs	.-38     	; 0x242c <vfscanf+0x88>
    2452:	01 fd       	sbrc	r16, 1
    2454:	03 c0       	rjmp	.+6      	; 0x245c <vfscanf+0xb8>
    2456:	99 24       	eor	r9, r9
    2458:	9a 94       	dec	r9
    245a:	03 c0       	rjmp	.+6      	; 0x2462 <vfscanf+0xbe>
    245c:	99 20       	and	r9, r9
    245e:	09 f4       	brne	.+2      	; 0x2462 <vfscanf+0xbe>
    2460:	b2 c0       	rjmp	.+356    	; 0x25c6 <vfscanf+0x222>
    2462:	18 36       	cpi	r17, 0x68	; 104
    2464:	21 f0       	breq	.+8      	; 0x246e <vfscanf+0xca>
    2466:	1c 36       	cpi	r17, 0x6C	; 108
    2468:	99 f4       	brne	.+38     	; 0x2490 <vfscanf+0xec>
    246a:	f6 01       	movw	r30, r12
    246c:	0b c0       	rjmp	.+22     	; 0x2484 <vfscanf+0xe0>
    246e:	f6 01       	movw	r30, r12
    2470:	f3 fc       	sbrc	r15, 3
    2472:	65 91       	lpm	r22, Z+
    2474:	f3 fe       	sbrs	r15, 3
    2476:	61 91       	ld	r22, Z+
    2478:	68 36       	cpi	r22, 0x68	; 104
    247a:	19 f0       	breq	.+6      	; 0x2482 <vfscanf+0xde>
    247c:	6f 01       	movw	r12, r30
    247e:	16 2f       	mov	r17, r22
    2480:	07 c0       	rjmp	.+14     	; 0x2490 <vfscanf+0xec>
    2482:	08 60       	ori	r16, 0x08	; 8
    2484:	04 60       	ori	r16, 0x04	; 4
    2486:	f3 fc       	sbrc	r15, 3
    2488:	15 91       	lpm	r17, Z+
    248a:	f3 fe       	sbrs	r15, 3
    248c:	11 91       	ld	r17, Z+
    248e:	6f 01       	movw	r12, r30
    2490:	11 23       	and	r17, r17
    2492:	09 f4       	brne	.+2      	; 0x2496 <vfscanf+0xf2>
    2494:	98 c0       	rjmp	.+304    	; 0x25c6 <vfscanf+0x222>
    2496:	8c e8       	ldi	r24, 0x8C	; 140
    2498:	90 e0       	ldi	r25, 0x00	; 0
    249a:	61 2f       	mov	r22, r17
    249c:	70 e0       	ldi	r23, 0x00	; 0
    249e:	0e 94 fd 12 	call	0x25fa	; 0x25fa <strchr_P>
    24a2:	89 2b       	or	r24, r25
    24a4:	09 f4       	brne	.+2      	; 0x24a8 <vfscanf+0x104>
    24a6:	8f c0       	rjmp	.+286    	; 0x25c6 <vfscanf+0x222>
    24a8:	80 2f       	mov	r24, r16
    24aa:	00 ff       	sbrs	r16, 0
    24ac:	03 c0       	rjmp	.+6      	; 0x24b4 <vfscanf+0x110>
    24ae:	ee 24       	eor	r14, r14
    24b0:	ff 24       	eor	r15, r15
    24b2:	07 c0       	rjmp	.+14     	; 0x24c2 <vfscanf+0x11e>
    24b4:	f3 01       	movw	r30, r6
    24b6:	e0 80       	ld	r14, Z
    24b8:	f1 80       	ldd	r15, Z+1	; 0x01
    24ba:	22 e0       	ldi	r18, 0x02	; 2
    24bc:	30 e0       	ldi	r19, 0x00	; 0
    24be:	62 0e       	add	r6, r18
    24c0:	73 1e       	adc	r7, r19
    24c2:	1e 36       	cpi	r17, 0x6E	; 110
    24c4:	51 f4       	brne	.+20     	; 0x24da <vfscanf+0x136>
    24c6:	f5 01       	movw	r30, r10
    24c8:	46 81       	ldd	r20, Z+6	; 0x06
    24ca:	57 81       	ldd	r21, Z+7	; 0x07
    24cc:	60 e0       	ldi	r22, 0x00	; 0
    24ce:	70 e0       	ldi	r23, 0x00	; 0
    24d0:	c7 01       	movw	r24, r14
    24d2:	20 2f       	mov	r18, r16
    24d4:	0e 94 23 10 	call	0x2046	; 0x2046 <putval>
    24d8:	65 c0       	rjmp	.+202    	; 0x25a4 <vfscanf+0x200>
    24da:	13 36       	cpi	r17, 0x63	; 99
    24dc:	91 f4       	brne	.+36     	; 0x2502 <vfscanf+0x15e>
    24de:	81 fd       	sbrc	r24, 1
    24e0:	02 c0       	rjmp	.+4      	; 0x24e6 <vfscanf+0x142>
    24e2:	99 24       	eor	r9, r9
    24e4:	93 94       	inc	r9
    24e6:	c5 01       	movw	r24, r10
    24e8:	0e 94 1e 13 	call	0x263c	; 0x263c <fgetc>
    24ec:	97 fd       	sbrc	r25, 7
    24ee:	66 c0       	rjmp	.+204    	; 0x25bc <vfscanf+0x218>
    24f0:	e1 14       	cp	r14, r1
    24f2:	f1 04       	cpc	r15, r1
    24f4:	19 f0       	breq	.+6      	; 0x24fc <vfscanf+0x158>
    24f6:	f7 01       	movw	r30, r14
    24f8:	81 93       	st	Z+, r24
    24fa:	7f 01       	movw	r14, r30
    24fc:	9a 94       	dec	r9
    24fe:	99 f7       	brne	.-26     	; 0x24e6 <vfscanf+0x142>
    2500:	4f c0       	rjmp	.+158    	; 0x25a0 <vfscanf+0x1fc>
    2502:	1b 35       	cpi	r17, 0x5B	; 91
    2504:	59 f4       	brne	.+22     	; 0x251c <vfscanf+0x178>
    2506:	c5 01       	movw	r24, r10
    2508:	69 2d       	mov	r22, r9
    250a:	a7 01       	movw	r20, r14
    250c:	96 01       	movw	r18, r12
    250e:	0e 94 08 11 	call	0x2210	; 0x2210 <conv_brk>
    2512:	6c 01       	movw	r12, r24
    2514:	00 97       	sbiw	r24, 0x00	; 0
    2516:	09 f0       	breq	.+2      	; 0x251a <vfscanf+0x176>
    2518:	43 c0       	rjmp	.+134    	; 0x25a0 <vfscanf+0x1fc>
    251a:	3d c0       	rjmp	.+122    	; 0x2596 <vfscanf+0x1f2>
    251c:	c5 01       	movw	r24, r10
    251e:	0e 94 5d 10 	call	0x20ba	; 0x20ba <skip_spaces>
    2522:	97 fd       	sbrc	r25, 7
    2524:	4b c0       	rjmp	.+150    	; 0x25bc <vfscanf+0x218>
    2526:	1f 36       	cpi	r17, 0x6F	; 111
    2528:	59 f1       	breq	.+86     	; 0x2580 <vfscanf+0x1dc>
    252a:	10 37       	cpi	r17, 0x70	; 112
    252c:	28 f4       	brcc	.+10     	; 0x2538 <vfscanf+0x194>
    252e:	14 36       	cpi	r17, 0x64	; 100
    2530:	29 f1       	breq	.+74     	; 0x257c <vfscanf+0x1d8>
    2532:	19 36       	cpi	r17, 0x69	; 105
    2534:	39 f5       	brne	.+78     	; 0x2584 <vfscanf+0x1e0>
    2536:	27 c0       	rjmp	.+78     	; 0x2586 <vfscanf+0x1e2>
    2538:	13 37       	cpi	r17, 0x73	; 115
    253a:	19 f0       	breq	.+6      	; 0x2542 <vfscanf+0x19e>
    253c:	15 37       	cpi	r17, 0x75	; 117
    253e:	11 f5       	brne	.+68     	; 0x2584 <vfscanf+0x1e0>
    2540:	1d c0       	rjmp	.+58     	; 0x257c <vfscanf+0x1d8>
    2542:	c5 01       	movw	r24, r10
    2544:	0e 94 1e 13 	call	0x263c	; 0x263c <fgetc>
    2548:	ec 01       	movw	r28, r24
    254a:	97 fd       	sbrc	r25, 7
    254c:	11 c0       	rjmp	.+34     	; 0x2570 <vfscanf+0x1cc>
    254e:	0e 94 f5 12 	call	0x25ea	; 0x25ea <isspace>
    2552:	89 2b       	or	r24, r25
    2554:	29 f0       	breq	.+10     	; 0x2560 <vfscanf+0x1bc>
    2556:	ce 01       	movw	r24, r28
    2558:	b5 01       	movw	r22, r10
    255a:	0e 94 8c 13 	call	0x2718	; 0x2718 <ungetc>
    255e:	08 c0       	rjmp	.+16     	; 0x2570 <vfscanf+0x1cc>
    2560:	e1 14       	cp	r14, r1
    2562:	f1 04       	cpc	r15, r1
    2564:	19 f0       	breq	.+6      	; 0x256c <vfscanf+0x1c8>
    2566:	f7 01       	movw	r30, r14
    2568:	c1 93       	st	Z+, r28
    256a:	7f 01       	movw	r14, r30
    256c:	9a 94       	dec	r9
    256e:	49 f7       	brne	.-46     	; 0x2542 <vfscanf+0x19e>
    2570:	e1 14       	cp	r14, r1
    2572:	f1 04       	cpc	r15, r1
    2574:	a9 f0       	breq	.+42     	; 0x25a0 <vfscanf+0x1fc>
    2576:	f7 01       	movw	r30, r14
    2578:	10 82       	st	Z, r1
    257a:	12 c0       	rjmp	.+36     	; 0x25a0 <vfscanf+0x1fc>
    257c:	00 62       	ori	r16, 0x20	; 32
    257e:	03 c0       	rjmp	.+6      	; 0x2586 <vfscanf+0x1e2>
    2580:	00 61       	ori	r16, 0x10	; 16
    2582:	01 c0       	rjmp	.+2      	; 0x2586 <vfscanf+0x1e2>
    2584:	00 64       	ori	r16, 0x40	; 64
    2586:	c5 01       	movw	r24, r10
    2588:	69 2d       	mov	r22, r9
    258a:	a7 01       	movw	r20, r14
    258c:	20 2f       	mov	r18, r16
    258e:	0e 94 76 10 	call	0x20ec	; 0x20ec <conv_int>
    2592:	88 23       	and	r24, r24
    2594:	29 f4       	brne	.+10     	; 0x25a0 <vfscanf+0x1fc>
    2596:	f5 01       	movw	r30, r10
    2598:	83 81       	ldd	r24, Z+3	; 0x03
    259a:	80 73       	andi	r24, 0x30	; 48
    259c:	79 f4       	brne	.+30     	; 0x25bc <vfscanf+0x218>
    259e:	13 c0       	rjmp	.+38     	; 0x25c6 <vfscanf+0x222>
    25a0:	00 ff       	sbrs	r16, 0
    25a2:	83 94       	inc	r8
    25a4:	f5 01       	movw	r30, r10
    25a6:	f3 80       	ldd	r15, Z+3	; 0x03
    25a8:	f6 01       	movw	r30, r12
    25aa:	f3 fc       	sbrc	r15, 3
    25ac:	15 91       	lpm	r17, Z+
    25ae:	f3 fe       	sbrs	r15, 3
    25b0:	11 91       	ld	r17, Z+
    25b2:	6f 01       	movw	r12, r30
    25b4:	11 23       	and	r17, r17
    25b6:	09 f0       	breq	.+2      	; 0x25ba <vfscanf+0x216>
    25b8:	0b cf       	rjmp	.-490    	; 0x23d0 <vfscanf+0x2c>
    25ba:	05 c0       	rjmp	.+10     	; 0x25c6 <vfscanf+0x222>
    25bc:	88 20       	and	r8, r8
    25be:	19 f4       	brne	.+6      	; 0x25c6 <vfscanf+0x222>
    25c0:	2f ef       	ldi	r18, 0xFF	; 255
    25c2:	3f ef       	ldi	r19, 0xFF	; 255
    25c4:	02 c0       	rjmp	.+4      	; 0x25ca <vfscanf+0x226>
    25c6:	28 2d       	mov	r18, r8
    25c8:	30 e0       	ldi	r19, 0x00	; 0
    25ca:	c9 01       	movw	r24, r18
    25cc:	df 91       	pop	r29
    25ce:	cf 91       	pop	r28
    25d0:	1f 91       	pop	r17
    25d2:	0f 91       	pop	r16
    25d4:	ff 90       	pop	r15
    25d6:	ef 90       	pop	r14
    25d8:	df 90       	pop	r13
    25da:	cf 90       	pop	r12
    25dc:	bf 90       	pop	r11
    25de:	af 90       	pop	r10
    25e0:	9f 90       	pop	r9
    25e2:	8f 90       	pop	r8
    25e4:	7f 90       	pop	r7
    25e6:	6f 90       	pop	r6
    25e8:	08 95       	ret

000025ea <isspace>:
    25ea:	91 11       	cpse	r25, r1
    25ec:	0d c1       	rjmp	.+538    	; 0x2808 <__ctype_isfalse>
    25ee:	80 32       	cpi	r24, 0x20	; 32
    25f0:	19 f0       	breq	.+6      	; 0x25f8 <isspace+0xe>
    25f2:	89 50       	subi	r24, 0x09	; 9
    25f4:	85 50       	subi	r24, 0x05	; 5
    25f6:	d0 f7       	brcc	.-12     	; 0x25ec <isspace+0x2>
    25f8:	08 95       	ret

000025fa <strchr_P>:
    25fa:	fc 01       	movw	r30, r24
    25fc:	05 90       	lpm	r0, Z+
    25fe:	06 16       	cp	r0, r22
    2600:	21 f0       	breq	.+8      	; 0x260a <strchr_P+0x10>
    2602:	00 20       	and	r0, r0
    2604:	d9 f7       	brne	.-10     	; 0x25fc <strchr_P+0x2>
    2606:	c0 01       	movw	r24, r0
    2608:	08 95       	ret
    260a:	31 97       	sbiw	r30, 0x01	; 1
    260c:	cf 01       	movw	r24, r30
    260e:	08 95       	ret

00002610 <strnlen_P>:
    2610:	fc 01       	movw	r30, r24
    2612:	05 90       	lpm	r0, Z+
    2614:	61 50       	subi	r22, 0x01	; 1
    2616:	70 40       	sbci	r23, 0x00	; 0
    2618:	01 10       	cpse	r0, r1
    261a:	d8 f7       	brcc	.-10     	; 0x2612 <strnlen_P+0x2>
    261c:	80 95       	com	r24
    261e:	90 95       	com	r25
    2620:	8e 0f       	add	r24, r30
    2622:	9f 1f       	adc	r25, r31
    2624:	08 95       	ret

00002626 <strnlen>:
    2626:	fc 01       	movw	r30, r24
    2628:	61 50       	subi	r22, 0x01	; 1
    262a:	70 40       	sbci	r23, 0x00	; 0
    262c:	01 90       	ld	r0, Z+
    262e:	01 10       	cpse	r0, r1
    2630:	d8 f7       	brcc	.-10     	; 0x2628 <strnlen+0x2>
    2632:	80 95       	com	r24
    2634:	90 95       	com	r25
    2636:	8e 0f       	add	r24, r30
    2638:	9f 1f       	adc	r25, r31
    263a:	08 95       	ret

0000263c <fgetc>:
    263c:	cf 93       	push	r28
    263e:	df 93       	push	r29
    2640:	ec 01       	movw	r28, r24
    2642:	4b 81       	ldd	r20, Y+3	; 0x03
    2644:	40 ff       	sbrs	r20, 0
    2646:	1a c0       	rjmp	.+52     	; 0x267c <fgetc+0x40>
    2648:	46 ff       	sbrs	r20, 6
    264a:	0a c0       	rjmp	.+20     	; 0x2660 <fgetc+0x24>
    264c:	4f 7b       	andi	r20, 0xBF	; 191
    264e:	4b 83       	std	Y+3, r20	; 0x03
    2650:	8e 81       	ldd	r24, Y+6	; 0x06
    2652:	9f 81       	ldd	r25, Y+7	; 0x07
    2654:	01 96       	adiw	r24, 0x01	; 1
    2656:	9f 83       	std	Y+7, r25	; 0x07
    2658:	8e 83       	std	Y+6, r24	; 0x06
    265a:	8a 81       	ldd	r24, Y+2	; 0x02
    265c:	28 2f       	mov	r18, r24
    265e:	2b c0       	rjmp	.+86     	; 0x26b6 <fgetc+0x7a>
    2660:	42 ff       	sbrs	r20, 2
    2662:	13 c0       	rjmp	.+38     	; 0x268a <fgetc+0x4e>
    2664:	e8 81       	ld	r30, Y
    2666:	f9 81       	ldd	r31, Y+1	; 0x01
    2668:	80 81       	ld	r24, Z
    266a:	28 2f       	mov	r18, r24
    266c:	33 27       	eor	r19, r19
    266e:	27 fd       	sbrc	r18, 7
    2670:	30 95       	com	r19
    2672:	21 15       	cp	r18, r1
    2674:	31 05       	cpc	r19, r1
    2676:	29 f4       	brne	.+10     	; 0x2682 <fgetc+0x46>
    2678:	40 62       	ori	r20, 0x20	; 32
    267a:	4b 83       	std	Y+3, r20	; 0x03
    267c:	2f ef       	ldi	r18, 0xFF	; 255
    267e:	3f ef       	ldi	r19, 0xFF	; 255
    2680:	1b c0       	rjmp	.+54     	; 0x26b8 <fgetc+0x7c>
    2682:	31 96       	adiw	r30, 0x01	; 1
    2684:	f9 83       	std	Y+1, r31	; 0x01
    2686:	e8 83       	st	Y, r30
    2688:	11 c0       	rjmp	.+34     	; 0x26ac <fgetc+0x70>
    268a:	ea 85       	ldd	r30, Y+10	; 0x0a
    268c:	fb 85       	ldd	r31, Y+11	; 0x0b
    268e:	ce 01       	movw	r24, r28
    2690:	09 95       	icall
    2692:	9c 01       	movw	r18, r24
    2694:	97 ff       	sbrs	r25, 7
    2696:	0a c0       	rjmp	.+20     	; 0x26ac <fgetc+0x70>
    2698:	9b 81       	ldd	r25, Y+3	; 0x03
    269a:	2f 5f       	subi	r18, 0xFF	; 255
    269c:	3f 4f       	sbci	r19, 0xFF	; 255
    269e:	11 f0       	breq	.+4      	; 0x26a4 <fgetc+0x68>
    26a0:	80 e2       	ldi	r24, 0x20	; 32
    26a2:	01 c0       	rjmp	.+2      	; 0x26a6 <fgetc+0x6a>
    26a4:	80 e1       	ldi	r24, 0x10	; 16
    26a6:	89 2b       	or	r24, r25
    26a8:	8b 83       	std	Y+3, r24	; 0x03
    26aa:	e8 cf       	rjmp	.-48     	; 0x267c <fgetc+0x40>
    26ac:	8e 81       	ldd	r24, Y+6	; 0x06
    26ae:	9f 81       	ldd	r25, Y+7	; 0x07
    26b0:	01 96       	adiw	r24, 0x01	; 1
    26b2:	9f 83       	std	Y+7, r25	; 0x07
    26b4:	8e 83       	std	Y+6, r24	; 0x06
    26b6:	30 e0       	ldi	r19, 0x00	; 0
    26b8:	c9 01       	movw	r24, r18
    26ba:	df 91       	pop	r29
    26bc:	cf 91       	pop	r28
    26be:	08 95       	ret

000026c0 <fputc>:
    26c0:	0f 93       	push	r16
    26c2:	1f 93       	push	r17
    26c4:	cf 93       	push	r28
    26c6:	df 93       	push	r29
    26c8:	8c 01       	movw	r16, r24
    26ca:	eb 01       	movw	r28, r22
    26cc:	8b 81       	ldd	r24, Y+3	; 0x03
    26ce:	81 ff       	sbrs	r24, 1
    26d0:	1b c0       	rjmp	.+54     	; 0x2708 <fputc+0x48>
    26d2:	82 ff       	sbrs	r24, 2
    26d4:	0d c0       	rjmp	.+26     	; 0x26f0 <fputc+0x30>
    26d6:	2e 81       	ldd	r18, Y+6	; 0x06
    26d8:	3f 81       	ldd	r19, Y+7	; 0x07
    26da:	8c 81       	ldd	r24, Y+4	; 0x04
    26dc:	9d 81       	ldd	r25, Y+5	; 0x05
    26de:	28 17       	cp	r18, r24
    26e0:	39 07       	cpc	r19, r25
    26e2:	64 f4       	brge	.+24     	; 0x26fc <fputc+0x3c>
    26e4:	e8 81       	ld	r30, Y
    26e6:	f9 81       	ldd	r31, Y+1	; 0x01
    26e8:	01 93       	st	Z+, r16
    26ea:	f9 83       	std	Y+1, r31	; 0x01
    26ec:	e8 83       	st	Y, r30
    26ee:	06 c0       	rjmp	.+12     	; 0x26fc <fputc+0x3c>
    26f0:	e8 85       	ldd	r30, Y+8	; 0x08
    26f2:	f9 85       	ldd	r31, Y+9	; 0x09
    26f4:	80 2f       	mov	r24, r16
    26f6:	09 95       	icall
    26f8:	89 2b       	or	r24, r25
    26fa:	31 f4       	brne	.+12     	; 0x2708 <fputc+0x48>
    26fc:	8e 81       	ldd	r24, Y+6	; 0x06
    26fe:	9f 81       	ldd	r25, Y+7	; 0x07
    2700:	01 96       	adiw	r24, 0x01	; 1
    2702:	9f 83       	std	Y+7, r25	; 0x07
    2704:	8e 83       	std	Y+6, r24	; 0x06
    2706:	02 c0       	rjmp	.+4      	; 0x270c <fputc+0x4c>
    2708:	0f ef       	ldi	r16, 0xFF	; 255
    270a:	1f ef       	ldi	r17, 0xFF	; 255
    270c:	c8 01       	movw	r24, r16
    270e:	df 91       	pop	r29
    2710:	cf 91       	pop	r28
    2712:	1f 91       	pop	r17
    2714:	0f 91       	pop	r16
    2716:	08 95       	ret

00002718 <ungetc>:
    2718:	9c 01       	movw	r18, r24
    271a:	fb 01       	movw	r30, r22
    271c:	83 81       	ldd	r24, Z+3	; 0x03
    271e:	80 ff       	sbrs	r24, 0
    2720:	11 c0       	rjmp	.+34     	; 0x2744 <ungetc+0x2c>
    2722:	86 fd       	sbrc	r24, 6
    2724:	0f c0       	rjmp	.+30     	; 0x2744 <ungetc+0x2c>
    2726:	9f ef       	ldi	r25, 0xFF	; 255
    2728:	2f 3f       	cpi	r18, 0xFF	; 255
    272a:	39 07       	cpc	r19, r25
    272c:	59 f0       	breq	.+22     	; 0x2744 <ungetc+0x2c>
    272e:	22 83       	std	Z+2, r18	; 0x02
    2730:	80 64       	ori	r24, 0x40	; 64
    2732:	8f 7d       	andi	r24, 0xDF	; 223
    2734:	83 83       	std	Z+3, r24	; 0x03
    2736:	86 81       	ldd	r24, Z+6	; 0x06
    2738:	97 81       	ldd	r25, Z+7	; 0x07
    273a:	01 97       	sbiw	r24, 0x01	; 1
    273c:	97 83       	std	Z+7, r25	; 0x07
    273e:	86 83       	std	Z+6, r24	; 0x06
    2740:	30 e0       	ldi	r19, 0x00	; 0
    2742:	02 c0       	rjmp	.+4      	; 0x2748 <ungetc+0x30>
    2744:	2f ef       	ldi	r18, 0xFF	; 255
    2746:	3f ef       	ldi	r19, 0xFF	; 255
    2748:	c9 01       	movw	r24, r18
    274a:	08 95       	ret

0000274c <__ultoa_invert>:
    274c:	fa 01       	movw	r30, r20
    274e:	aa 27       	eor	r26, r26
    2750:	28 30       	cpi	r18, 0x08	; 8
    2752:	51 f1       	breq	.+84     	; 0x27a8 <__ultoa_invert+0x5c>
    2754:	20 31       	cpi	r18, 0x10	; 16
    2756:	81 f1       	breq	.+96     	; 0x27b8 <__ultoa_invert+0x6c>
    2758:	e8 94       	clt
    275a:	6f 93       	push	r22
    275c:	6e 7f       	andi	r22, 0xFE	; 254
    275e:	6e 5f       	subi	r22, 0xFE	; 254
    2760:	7f 4f       	sbci	r23, 0xFF	; 255
    2762:	8f 4f       	sbci	r24, 0xFF	; 255
    2764:	9f 4f       	sbci	r25, 0xFF	; 255
    2766:	af 4f       	sbci	r26, 0xFF	; 255
    2768:	b1 e0       	ldi	r27, 0x01	; 1
    276a:	3e d0       	rcall	.+124    	; 0x27e8 <__ultoa_invert+0x9c>
    276c:	b4 e0       	ldi	r27, 0x04	; 4
    276e:	3c d0       	rcall	.+120    	; 0x27e8 <__ultoa_invert+0x9c>
    2770:	67 0f       	add	r22, r23
    2772:	78 1f       	adc	r23, r24
    2774:	89 1f       	adc	r24, r25
    2776:	9a 1f       	adc	r25, r26
    2778:	a1 1d       	adc	r26, r1
    277a:	68 0f       	add	r22, r24
    277c:	79 1f       	adc	r23, r25
    277e:	8a 1f       	adc	r24, r26
    2780:	91 1d       	adc	r25, r1
    2782:	a1 1d       	adc	r26, r1
    2784:	6a 0f       	add	r22, r26
    2786:	71 1d       	adc	r23, r1
    2788:	81 1d       	adc	r24, r1
    278a:	91 1d       	adc	r25, r1
    278c:	a1 1d       	adc	r26, r1
    278e:	20 d0       	rcall	.+64     	; 0x27d0 <__ultoa_invert+0x84>
    2790:	09 f4       	brne	.+2      	; 0x2794 <__ultoa_invert+0x48>
    2792:	68 94       	set
    2794:	3f 91       	pop	r19
    2796:	2a e0       	ldi	r18, 0x0A	; 10
    2798:	26 9f       	mul	r18, r22
    279a:	11 24       	eor	r1, r1
    279c:	30 19       	sub	r19, r0
    279e:	30 5d       	subi	r19, 0xD0	; 208
    27a0:	31 93       	st	Z+, r19
    27a2:	de f6       	brtc	.-74     	; 0x275a <__ultoa_invert+0xe>
    27a4:	cf 01       	movw	r24, r30
    27a6:	08 95       	ret
    27a8:	46 2f       	mov	r20, r22
    27aa:	47 70       	andi	r20, 0x07	; 7
    27ac:	40 5d       	subi	r20, 0xD0	; 208
    27ae:	41 93       	st	Z+, r20
    27b0:	b3 e0       	ldi	r27, 0x03	; 3
    27b2:	0f d0       	rcall	.+30     	; 0x27d2 <__ultoa_invert+0x86>
    27b4:	c9 f7       	brne	.-14     	; 0x27a8 <__ultoa_invert+0x5c>
    27b6:	f6 cf       	rjmp	.-20     	; 0x27a4 <__ultoa_invert+0x58>
    27b8:	46 2f       	mov	r20, r22
    27ba:	4f 70       	andi	r20, 0x0F	; 15
    27bc:	40 5d       	subi	r20, 0xD0	; 208
    27be:	4a 33       	cpi	r20, 0x3A	; 58
    27c0:	18 f0       	brcs	.+6      	; 0x27c8 <__ultoa_invert+0x7c>
    27c2:	49 5d       	subi	r20, 0xD9	; 217
    27c4:	31 fd       	sbrc	r19, 1
    27c6:	40 52       	subi	r20, 0x20	; 32
    27c8:	41 93       	st	Z+, r20
    27ca:	02 d0       	rcall	.+4      	; 0x27d0 <__ultoa_invert+0x84>
    27cc:	a9 f7       	brne	.-22     	; 0x27b8 <__ultoa_invert+0x6c>
    27ce:	ea cf       	rjmp	.-44     	; 0x27a4 <__ultoa_invert+0x58>
    27d0:	b4 e0       	ldi	r27, 0x04	; 4
    27d2:	a6 95       	lsr	r26
    27d4:	97 95       	ror	r25
    27d6:	87 95       	ror	r24
    27d8:	77 95       	ror	r23
    27da:	67 95       	ror	r22
    27dc:	ba 95       	dec	r27
    27de:	c9 f7       	brne	.-14     	; 0x27d2 <__ultoa_invert+0x86>
    27e0:	00 97       	sbiw	r24, 0x00	; 0
    27e2:	61 05       	cpc	r22, r1
    27e4:	71 05       	cpc	r23, r1
    27e6:	08 95       	ret
    27e8:	9b 01       	movw	r18, r22
    27ea:	ac 01       	movw	r20, r24
    27ec:	0a 2e       	mov	r0, r26
    27ee:	06 94       	lsr	r0
    27f0:	57 95       	ror	r21
    27f2:	47 95       	ror	r20
    27f4:	37 95       	ror	r19
    27f6:	27 95       	ror	r18
    27f8:	ba 95       	dec	r27
    27fa:	c9 f7       	brne	.-14     	; 0x27ee <__ultoa_invert+0xa2>
    27fc:	62 0f       	add	r22, r18
    27fe:	73 1f       	adc	r23, r19
    2800:	84 1f       	adc	r24, r20
    2802:	95 1f       	adc	r25, r21
    2804:	a0 1d       	adc	r26, r0
    2806:	08 95       	ret

00002808 <__ctype_isfalse>:
    2808:	99 27       	eor	r25, r25
    280a:	88 27       	eor	r24, r24

0000280c <__ctype_istrue>:
    280c:	08 95       	ret

0000280e <_exit>:
    280e:	f8 94       	cli

00002810 <__stop_program>:
    2810:	ff cf       	rjmp	.-2      	; 0x2810 <__stop_program>
